
LeonsProject.elf:     file format elf32-littlearm

Sections:
Idx Name          Size      VMA       LMA       File off  Algn
  0 .isr_vector   000000c0  08000000  08000000  00010000  2**0
                  CONTENTS, ALLOC, LOAD, READONLY, DATA
  1 .text         00003e1c  080000c0  080000c0  000100c0  2**2
                  CONTENTS, ALLOC, LOAD, READONLY, CODE
  2 .rodata       00000070  08003edc  08003edc  00013edc  2**2
                  CONTENTS, ALLOC, LOAD, READONLY, DATA
  3 .ARM.extab    00000000  08003f4c  08003f4c  0002001c  2**0
                  CONTENTS
  4 .ARM          00000000  08003f4c  08003f4c  0002001c  2**0
                  CONTENTS
  5 .preinit_array 00000000  08003f4c  08003f4c  0002001c  2**0
                  CONTENTS, ALLOC, LOAD, DATA
  6 .init_array   00000004  08003f4c  08003f4c  00013f4c  2**2
                  CONTENTS, ALLOC, LOAD, DATA
  7 .fini_array   00000004  08003f50  08003f50  00013f50  2**2
                  CONTENTS, ALLOC, LOAD, DATA
  8 .data         0000001c  20000000  08003f54  00020000  2**2
                  CONTENTS, ALLOC, LOAD, DATA
  9 .bss          000000b4  2000001c  08003f70  0002001c  2**2
                  ALLOC
 10 ._user_heap_stack 00000600  200000d0  08003f70  000200d0  2**0
                  ALLOC
 11 .ARM.attributes 00000028  00000000  00000000  0002001c  2**0
                  CONTENTS, READONLY
 12 .debug_info   0000c32b  00000000  00000000  00020044  2**0
                  CONTENTS, READONLY, DEBUGGING, OCTETS
 13 .debug_abbrev 00001cde  00000000  00000000  0002c36f  2**0
                  CONTENTS, READONLY, DEBUGGING, OCTETS
 14 .debug_aranges 00000c80  00000000  00000000  0002e050  2**3
                  CONTENTS, READONLY, DEBUGGING, OCTETS
 15 .debug_ranges 00000b98  00000000  00000000  0002ecd0  2**3
                  CONTENTS, READONLY, DEBUGGING, OCTETS
 16 .debug_macro  00011498  00000000  00000000  0002f868  2**0
                  CONTENTS, READONLY, DEBUGGING, OCTETS
 17 .debug_line   0000e972  00000000  00000000  00040d00  2**0
                  CONTENTS, READONLY, DEBUGGING, OCTETS
 18 .debug_str    00069e45  00000000  00000000  0004f672  2**0
                  CONTENTS, READONLY, DEBUGGING, OCTETS
 19 .comment      00000050  00000000  00000000  000b94b7  2**0
                  CONTENTS, READONLY
 20 .debug_frame  00002d94  00000000  00000000  000b9508  2**2
                  CONTENTS, READONLY, DEBUGGING, OCTETS

Disassembly of section .text:

080000c0 <__do_global_dtors_aux>:
 80000c0:	b510      	push	{r4, lr}
 80000c2:	4c06      	ldr	r4, [pc, #24]	; (80000dc <__do_global_dtors_aux+0x1c>)
 80000c4:	7823      	ldrb	r3, [r4, #0]
 80000c6:	2b00      	cmp	r3, #0
 80000c8:	d107      	bne.n	80000da <__do_global_dtors_aux+0x1a>
 80000ca:	4b05      	ldr	r3, [pc, #20]	; (80000e0 <__do_global_dtors_aux+0x20>)
 80000cc:	2b00      	cmp	r3, #0
 80000ce:	d002      	beq.n	80000d6 <__do_global_dtors_aux+0x16>
 80000d0:	4804      	ldr	r0, [pc, #16]	; (80000e4 <__do_global_dtors_aux+0x24>)
 80000d2:	e000      	b.n	80000d6 <__do_global_dtors_aux+0x16>
 80000d4:	bf00      	nop
 80000d6:	2301      	movs	r3, #1
 80000d8:	7023      	strb	r3, [r4, #0]
 80000da:	bd10      	pop	{r4, pc}
 80000dc:	2000001c 	.word	0x2000001c
 80000e0:	00000000 	.word	0x00000000
 80000e4:	08003ec4 	.word	0x08003ec4

080000e8 <frame_dummy>:
 80000e8:	4b04      	ldr	r3, [pc, #16]	; (80000fc <frame_dummy+0x14>)
 80000ea:	b510      	push	{r4, lr}
 80000ec:	2b00      	cmp	r3, #0
 80000ee:	d003      	beq.n	80000f8 <frame_dummy+0x10>
 80000f0:	4903      	ldr	r1, [pc, #12]	; (8000100 <frame_dummy+0x18>)
 80000f2:	4804      	ldr	r0, [pc, #16]	; (8000104 <frame_dummy+0x1c>)
 80000f4:	e000      	b.n	80000f8 <frame_dummy+0x10>
 80000f6:	bf00      	nop
 80000f8:	bd10      	pop	{r4, pc}
 80000fa:	46c0      	nop			; (mov r8, r8)
 80000fc:	00000000 	.word	0x00000000
 8000100:	20000020 	.word	0x20000020
 8000104:	08003ec4 	.word	0x08003ec4

08000108 <__udivsi3>:
 8000108:	2200      	movs	r2, #0
 800010a:	0843      	lsrs	r3, r0, #1
 800010c:	428b      	cmp	r3, r1
 800010e:	d374      	bcc.n	80001fa <__udivsi3+0xf2>
 8000110:	0903      	lsrs	r3, r0, #4
 8000112:	428b      	cmp	r3, r1
 8000114:	d35f      	bcc.n	80001d6 <__udivsi3+0xce>
 8000116:	0a03      	lsrs	r3, r0, #8
 8000118:	428b      	cmp	r3, r1
 800011a:	d344      	bcc.n	80001a6 <__udivsi3+0x9e>
 800011c:	0b03      	lsrs	r3, r0, #12
 800011e:	428b      	cmp	r3, r1
 8000120:	d328      	bcc.n	8000174 <__udivsi3+0x6c>
 8000122:	0c03      	lsrs	r3, r0, #16
 8000124:	428b      	cmp	r3, r1
 8000126:	d30d      	bcc.n	8000144 <__udivsi3+0x3c>
 8000128:	22ff      	movs	r2, #255	; 0xff
 800012a:	0209      	lsls	r1, r1, #8
 800012c:	ba12      	rev	r2, r2
 800012e:	0c03      	lsrs	r3, r0, #16
 8000130:	428b      	cmp	r3, r1
 8000132:	d302      	bcc.n	800013a <__udivsi3+0x32>
 8000134:	1212      	asrs	r2, r2, #8
 8000136:	0209      	lsls	r1, r1, #8
 8000138:	d065      	beq.n	8000206 <__udivsi3+0xfe>
 800013a:	0b03      	lsrs	r3, r0, #12
 800013c:	428b      	cmp	r3, r1
 800013e:	d319      	bcc.n	8000174 <__udivsi3+0x6c>
 8000140:	e000      	b.n	8000144 <__udivsi3+0x3c>
 8000142:	0a09      	lsrs	r1, r1, #8
 8000144:	0bc3      	lsrs	r3, r0, #15
 8000146:	428b      	cmp	r3, r1
 8000148:	d301      	bcc.n	800014e <__udivsi3+0x46>
 800014a:	03cb      	lsls	r3, r1, #15
 800014c:	1ac0      	subs	r0, r0, r3
 800014e:	4152      	adcs	r2, r2
 8000150:	0b83      	lsrs	r3, r0, #14
 8000152:	428b      	cmp	r3, r1
 8000154:	d301      	bcc.n	800015a <__udivsi3+0x52>
 8000156:	038b      	lsls	r3, r1, #14
 8000158:	1ac0      	subs	r0, r0, r3
 800015a:	4152      	adcs	r2, r2
 800015c:	0b43      	lsrs	r3, r0, #13
 800015e:	428b      	cmp	r3, r1
 8000160:	d301      	bcc.n	8000166 <__udivsi3+0x5e>
 8000162:	034b      	lsls	r3, r1, #13
 8000164:	1ac0      	subs	r0, r0, r3
 8000166:	4152      	adcs	r2, r2
 8000168:	0b03      	lsrs	r3, r0, #12
 800016a:	428b      	cmp	r3, r1
 800016c:	d301      	bcc.n	8000172 <__udivsi3+0x6a>
 800016e:	030b      	lsls	r3, r1, #12
 8000170:	1ac0      	subs	r0, r0, r3
 8000172:	4152      	adcs	r2, r2
 8000174:	0ac3      	lsrs	r3, r0, #11
 8000176:	428b      	cmp	r3, r1
 8000178:	d301      	bcc.n	800017e <__udivsi3+0x76>
 800017a:	02cb      	lsls	r3, r1, #11
 800017c:	1ac0      	subs	r0, r0, r3
 800017e:	4152      	adcs	r2, r2
 8000180:	0a83      	lsrs	r3, r0, #10
 8000182:	428b      	cmp	r3, r1
 8000184:	d301      	bcc.n	800018a <__udivsi3+0x82>
 8000186:	028b      	lsls	r3, r1, #10
 8000188:	1ac0      	subs	r0, r0, r3
 800018a:	4152      	adcs	r2, r2
 800018c:	0a43      	lsrs	r3, r0, #9
 800018e:	428b      	cmp	r3, r1
 8000190:	d301      	bcc.n	8000196 <__udivsi3+0x8e>
 8000192:	024b      	lsls	r3, r1, #9
 8000194:	1ac0      	subs	r0, r0, r3
 8000196:	4152      	adcs	r2, r2
 8000198:	0a03      	lsrs	r3, r0, #8
 800019a:	428b      	cmp	r3, r1
 800019c:	d301      	bcc.n	80001a2 <__udivsi3+0x9a>
 800019e:	020b      	lsls	r3, r1, #8
 80001a0:	1ac0      	subs	r0, r0, r3
 80001a2:	4152      	adcs	r2, r2
 80001a4:	d2cd      	bcs.n	8000142 <__udivsi3+0x3a>
 80001a6:	09c3      	lsrs	r3, r0, #7
 80001a8:	428b      	cmp	r3, r1
 80001aa:	d301      	bcc.n	80001b0 <__udivsi3+0xa8>
 80001ac:	01cb      	lsls	r3, r1, #7
 80001ae:	1ac0      	subs	r0, r0, r3
 80001b0:	4152      	adcs	r2, r2
 80001b2:	0983      	lsrs	r3, r0, #6
 80001b4:	428b      	cmp	r3, r1
 80001b6:	d301      	bcc.n	80001bc <__udivsi3+0xb4>
 80001b8:	018b      	lsls	r3, r1, #6
 80001ba:	1ac0      	subs	r0, r0, r3
 80001bc:	4152      	adcs	r2, r2
 80001be:	0943      	lsrs	r3, r0, #5
 80001c0:	428b      	cmp	r3, r1
 80001c2:	d301      	bcc.n	80001c8 <__udivsi3+0xc0>
 80001c4:	014b      	lsls	r3, r1, #5
 80001c6:	1ac0      	subs	r0, r0, r3
 80001c8:	4152      	adcs	r2, r2
 80001ca:	0903      	lsrs	r3, r0, #4
 80001cc:	428b      	cmp	r3, r1
 80001ce:	d301      	bcc.n	80001d4 <__udivsi3+0xcc>
 80001d0:	010b      	lsls	r3, r1, #4
 80001d2:	1ac0      	subs	r0, r0, r3
 80001d4:	4152      	adcs	r2, r2
 80001d6:	08c3      	lsrs	r3, r0, #3
 80001d8:	428b      	cmp	r3, r1
 80001da:	d301      	bcc.n	80001e0 <__udivsi3+0xd8>
 80001dc:	00cb      	lsls	r3, r1, #3
 80001de:	1ac0      	subs	r0, r0, r3
 80001e0:	4152      	adcs	r2, r2
 80001e2:	0883      	lsrs	r3, r0, #2
 80001e4:	428b      	cmp	r3, r1
 80001e6:	d301      	bcc.n	80001ec <__udivsi3+0xe4>
 80001e8:	008b      	lsls	r3, r1, #2
 80001ea:	1ac0      	subs	r0, r0, r3
 80001ec:	4152      	adcs	r2, r2
 80001ee:	0843      	lsrs	r3, r0, #1
 80001f0:	428b      	cmp	r3, r1
 80001f2:	d301      	bcc.n	80001f8 <__udivsi3+0xf0>
 80001f4:	004b      	lsls	r3, r1, #1
 80001f6:	1ac0      	subs	r0, r0, r3
 80001f8:	4152      	adcs	r2, r2
 80001fa:	1a41      	subs	r1, r0, r1
 80001fc:	d200      	bcs.n	8000200 <__udivsi3+0xf8>
 80001fe:	4601      	mov	r1, r0
 8000200:	4152      	adcs	r2, r2
 8000202:	4610      	mov	r0, r2
 8000204:	4770      	bx	lr
 8000206:	e7ff      	b.n	8000208 <__udivsi3+0x100>
 8000208:	b501      	push	{r0, lr}
 800020a:	2000      	movs	r0, #0
 800020c:	f000 f806 	bl	800021c <__aeabi_idiv0>
 8000210:	bd02      	pop	{r1, pc}
 8000212:	46c0      	nop			; (mov r8, r8)

08000214 <__aeabi_uidivmod>:
 8000214:	2900      	cmp	r1, #0
 8000216:	d0f7      	beq.n	8000208 <__udivsi3+0x100>
 8000218:	e776      	b.n	8000108 <__udivsi3>
 800021a:	4770      	bx	lr

0800021c <__aeabi_idiv0>:
 800021c:	4770      	bx	lr
 800021e:	46c0      	nop			; (mov r8, r8)

08000220 <__aeabi_fmul>:
 8000220:	b5f0      	push	{r4, r5, r6, r7, lr}
 8000222:	464f      	mov	r7, r9
 8000224:	4646      	mov	r6, r8
 8000226:	46d6      	mov	lr, sl
 8000228:	0244      	lsls	r4, r0, #9
 800022a:	0045      	lsls	r5, r0, #1
 800022c:	b5c0      	push	{r6, r7, lr}
 800022e:	0a64      	lsrs	r4, r4, #9
 8000230:	1c0f      	adds	r7, r1, #0
 8000232:	0e2d      	lsrs	r5, r5, #24
 8000234:	0fc6      	lsrs	r6, r0, #31
 8000236:	2d00      	cmp	r5, #0
 8000238:	d100      	bne.n	800023c <__aeabi_fmul+0x1c>
 800023a:	e08d      	b.n	8000358 <__aeabi_fmul+0x138>
 800023c:	2dff      	cmp	r5, #255	; 0xff
 800023e:	d100      	bne.n	8000242 <__aeabi_fmul+0x22>
 8000240:	e092      	b.n	8000368 <__aeabi_fmul+0x148>
 8000242:	2300      	movs	r3, #0
 8000244:	2080      	movs	r0, #128	; 0x80
 8000246:	4699      	mov	r9, r3
 8000248:	469a      	mov	sl, r3
 800024a:	00e4      	lsls	r4, r4, #3
 800024c:	04c0      	lsls	r0, r0, #19
 800024e:	4304      	orrs	r4, r0
 8000250:	3d7f      	subs	r5, #127	; 0x7f
 8000252:	0278      	lsls	r0, r7, #9
 8000254:	0a43      	lsrs	r3, r0, #9
 8000256:	4698      	mov	r8, r3
 8000258:	007b      	lsls	r3, r7, #1
 800025a:	0e1b      	lsrs	r3, r3, #24
 800025c:	0fff      	lsrs	r7, r7, #31
 800025e:	2b00      	cmp	r3, #0
 8000260:	d100      	bne.n	8000264 <__aeabi_fmul+0x44>
 8000262:	e070      	b.n	8000346 <__aeabi_fmul+0x126>
 8000264:	2bff      	cmp	r3, #255	; 0xff
 8000266:	d100      	bne.n	800026a <__aeabi_fmul+0x4a>
 8000268:	e086      	b.n	8000378 <__aeabi_fmul+0x158>
 800026a:	4642      	mov	r2, r8
 800026c:	00d0      	lsls	r0, r2, #3
 800026e:	2280      	movs	r2, #128	; 0x80
 8000270:	3b7f      	subs	r3, #127	; 0x7f
 8000272:	18ed      	adds	r5, r5, r3
 8000274:	2300      	movs	r3, #0
 8000276:	04d2      	lsls	r2, r2, #19
 8000278:	4302      	orrs	r2, r0
 800027a:	4690      	mov	r8, r2
 800027c:	469c      	mov	ip, r3
 800027e:	0031      	movs	r1, r6
 8000280:	464b      	mov	r3, r9
 8000282:	4079      	eors	r1, r7
 8000284:	1c68      	adds	r0, r5, #1
 8000286:	2b0f      	cmp	r3, #15
 8000288:	d81c      	bhi.n	80002c4 <__aeabi_fmul+0xa4>
 800028a:	4a76      	ldr	r2, [pc, #472]	; (8000464 <__aeabi_fmul+0x244>)
 800028c:	009b      	lsls	r3, r3, #2
 800028e:	58d3      	ldr	r3, [r2, r3]
 8000290:	469f      	mov	pc, r3
 8000292:	0039      	movs	r1, r7
 8000294:	4644      	mov	r4, r8
 8000296:	46e2      	mov	sl, ip
 8000298:	4653      	mov	r3, sl
 800029a:	2b02      	cmp	r3, #2
 800029c:	d00f      	beq.n	80002be <__aeabi_fmul+0x9e>
 800029e:	2b03      	cmp	r3, #3
 80002a0:	d100      	bne.n	80002a4 <__aeabi_fmul+0x84>
 80002a2:	e0d7      	b.n	8000454 <__aeabi_fmul+0x234>
 80002a4:	2b01      	cmp	r3, #1
 80002a6:	d137      	bne.n	8000318 <__aeabi_fmul+0xf8>
 80002a8:	2000      	movs	r0, #0
 80002aa:	2400      	movs	r4, #0
 80002ac:	05c0      	lsls	r0, r0, #23
 80002ae:	4320      	orrs	r0, r4
 80002b0:	07c9      	lsls	r1, r1, #31
 80002b2:	4308      	orrs	r0, r1
 80002b4:	bce0      	pop	{r5, r6, r7}
 80002b6:	46ba      	mov	sl, r7
 80002b8:	46b1      	mov	r9, r6
 80002ba:	46a8      	mov	r8, r5
 80002bc:	bdf0      	pop	{r4, r5, r6, r7, pc}
 80002be:	20ff      	movs	r0, #255	; 0xff
 80002c0:	2400      	movs	r4, #0
 80002c2:	e7f3      	b.n	80002ac <__aeabi_fmul+0x8c>
 80002c4:	0c26      	lsrs	r6, r4, #16
 80002c6:	0424      	lsls	r4, r4, #16
 80002c8:	0c22      	lsrs	r2, r4, #16
 80002ca:	4644      	mov	r4, r8
 80002cc:	0424      	lsls	r4, r4, #16
 80002ce:	0c24      	lsrs	r4, r4, #16
 80002d0:	4643      	mov	r3, r8
 80002d2:	0027      	movs	r7, r4
 80002d4:	0c1b      	lsrs	r3, r3, #16
 80002d6:	4357      	muls	r7, r2
 80002d8:	4374      	muls	r4, r6
 80002da:	435a      	muls	r2, r3
 80002dc:	435e      	muls	r6, r3
 80002de:	1912      	adds	r2, r2, r4
 80002e0:	0c3b      	lsrs	r3, r7, #16
 80002e2:	189b      	adds	r3, r3, r2
 80002e4:	429c      	cmp	r4, r3
 80002e6:	d903      	bls.n	80002f0 <__aeabi_fmul+0xd0>
 80002e8:	2280      	movs	r2, #128	; 0x80
 80002ea:	0252      	lsls	r2, r2, #9
 80002ec:	4694      	mov	ip, r2
 80002ee:	4466      	add	r6, ip
 80002f0:	043f      	lsls	r7, r7, #16
 80002f2:	041a      	lsls	r2, r3, #16
 80002f4:	0c3f      	lsrs	r7, r7, #16
 80002f6:	19d2      	adds	r2, r2, r7
 80002f8:	0194      	lsls	r4, r2, #6
 80002fa:	1e67      	subs	r7, r4, #1
 80002fc:	41bc      	sbcs	r4, r7
 80002fe:	0c1b      	lsrs	r3, r3, #16
 8000300:	0e92      	lsrs	r2, r2, #26
 8000302:	199b      	adds	r3, r3, r6
 8000304:	4314      	orrs	r4, r2
 8000306:	019b      	lsls	r3, r3, #6
 8000308:	431c      	orrs	r4, r3
 800030a:	011b      	lsls	r3, r3, #4
 800030c:	d400      	bmi.n	8000310 <__aeabi_fmul+0xf0>
 800030e:	e09b      	b.n	8000448 <__aeabi_fmul+0x228>
 8000310:	2301      	movs	r3, #1
 8000312:	0862      	lsrs	r2, r4, #1
 8000314:	401c      	ands	r4, r3
 8000316:	4314      	orrs	r4, r2
 8000318:	0002      	movs	r2, r0
 800031a:	327f      	adds	r2, #127	; 0x7f
 800031c:	2a00      	cmp	r2, #0
 800031e:	dd64      	ble.n	80003ea <__aeabi_fmul+0x1ca>
 8000320:	0763      	lsls	r3, r4, #29
 8000322:	d004      	beq.n	800032e <__aeabi_fmul+0x10e>
 8000324:	230f      	movs	r3, #15
 8000326:	4023      	ands	r3, r4
 8000328:	2b04      	cmp	r3, #4
 800032a:	d000      	beq.n	800032e <__aeabi_fmul+0x10e>
 800032c:	3404      	adds	r4, #4
 800032e:	0123      	lsls	r3, r4, #4
 8000330:	d503      	bpl.n	800033a <__aeabi_fmul+0x11a>
 8000332:	0002      	movs	r2, r0
 8000334:	4b4c      	ldr	r3, [pc, #304]	; (8000468 <__aeabi_fmul+0x248>)
 8000336:	3280      	adds	r2, #128	; 0x80
 8000338:	401c      	ands	r4, r3
 800033a:	2afe      	cmp	r2, #254	; 0xfe
 800033c:	dcbf      	bgt.n	80002be <__aeabi_fmul+0x9e>
 800033e:	01a4      	lsls	r4, r4, #6
 8000340:	0a64      	lsrs	r4, r4, #9
 8000342:	b2d0      	uxtb	r0, r2
 8000344:	e7b2      	b.n	80002ac <__aeabi_fmul+0x8c>
 8000346:	4643      	mov	r3, r8
 8000348:	2b00      	cmp	r3, #0
 800034a:	d13d      	bne.n	80003c8 <__aeabi_fmul+0x1a8>
 800034c:	464a      	mov	r2, r9
 800034e:	3301      	adds	r3, #1
 8000350:	431a      	orrs	r2, r3
 8000352:	4691      	mov	r9, r2
 8000354:	469c      	mov	ip, r3
 8000356:	e792      	b.n	800027e <__aeabi_fmul+0x5e>
 8000358:	2c00      	cmp	r4, #0
 800035a:	d129      	bne.n	80003b0 <__aeabi_fmul+0x190>
 800035c:	2304      	movs	r3, #4
 800035e:	4699      	mov	r9, r3
 8000360:	3b03      	subs	r3, #3
 8000362:	2500      	movs	r5, #0
 8000364:	469a      	mov	sl, r3
 8000366:	e774      	b.n	8000252 <__aeabi_fmul+0x32>
 8000368:	2c00      	cmp	r4, #0
 800036a:	d11b      	bne.n	80003a4 <__aeabi_fmul+0x184>
 800036c:	2308      	movs	r3, #8
 800036e:	4699      	mov	r9, r3
 8000370:	3b06      	subs	r3, #6
 8000372:	25ff      	movs	r5, #255	; 0xff
 8000374:	469a      	mov	sl, r3
 8000376:	e76c      	b.n	8000252 <__aeabi_fmul+0x32>
 8000378:	4643      	mov	r3, r8
 800037a:	35ff      	adds	r5, #255	; 0xff
 800037c:	2b00      	cmp	r3, #0
 800037e:	d10b      	bne.n	8000398 <__aeabi_fmul+0x178>
 8000380:	2302      	movs	r3, #2
 8000382:	464a      	mov	r2, r9
 8000384:	431a      	orrs	r2, r3
 8000386:	4691      	mov	r9, r2
 8000388:	469c      	mov	ip, r3
 800038a:	e778      	b.n	800027e <__aeabi_fmul+0x5e>
 800038c:	4653      	mov	r3, sl
 800038e:	0031      	movs	r1, r6
 8000390:	2b02      	cmp	r3, #2
 8000392:	d000      	beq.n	8000396 <__aeabi_fmul+0x176>
 8000394:	e783      	b.n	800029e <__aeabi_fmul+0x7e>
 8000396:	e792      	b.n	80002be <__aeabi_fmul+0x9e>
 8000398:	2303      	movs	r3, #3
 800039a:	464a      	mov	r2, r9
 800039c:	431a      	orrs	r2, r3
 800039e:	4691      	mov	r9, r2
 80003a0:	469c      	mov	ip, r3
 80003a2:	e76c      	b.n	800027e <__aeabi_fmul+0x5e>
 80003a4:	230c      	movs	r3, #12
 80003a6:	4699      	mov	r9, r3
 80003a8:	3b09      	subs	r3, #9
 80003aa:	25ff      	movs	r5, #255	; 0xff
 80003ac:	469a      	mov	sl, r3
 80003ae:	e750      	b.n	8000252 <__aeabi_fmul+0x32>
 80003b0:	0020      	movs	r0, r4
 80003b2:	f000 f8a9 	bl	8000508 <__clzsi2>
 80003b6:	2576      	movs	r5, #118	; 0x76
 80003b8:	1f43      	subs	r3, r0, #5
 80003ba:	409c      	lsls	r4, r3
 80003bc:	2300      	movs	r3, #0
 80003be:	426d      	negs	r5, r5
 80003c0:	4699      	mov	r9, r3
 80003c2:	469a      	mov	sl, r3
 80003c4:	1a2d      	subs	r5, r5, r0
 80003c6:	e744      	b.n	8000252 <__aeabi_fmul+0x32>
 80003c8:	4640      	mov	r0, r8
 80003ca:	f000 f89d 	bl	8000508 <__clzsi2>
 80003ce:	4642      	mov	r2, r8
 80003d0:	1f43      	subs	r3, r0, #5
 80003d2:	409a      	lsls	r2, r3
 80003d4:	2300      	movs	r3, #0
 80003d6:	1a2d      	subs	r5, r5, r0
 80003d8:	4690      	mov	r8, r2
 80003da:	469c      	mov	ip, r3
 80003dc:	3d76      	subs	r5, #118	; 0x76
 80003de:	e74e      	b.n	800027e <__aeabi_fmul+0x5e>
 80003e0:	2480      	movs	r4, #128	; 0x80
 80003e2:	2100      	movs	r1, #0
 80003e4:	20ff      	movs	r0, #255	; 0xff
 80003e6:	03e4      	lsls	r4, r4, #15
 80003e8:	e760      	b.n	80002ac <__aeabi_fmul+0x8c>
 80003ea:	2301      	movs	r3, #1
 80003ec:	1a9b      	subs	r3, r3, r2
 80003ee:	2b1b      	cmp	r3, #27
 80003f0:	dd00      	ble.n	80003f4 <__aeabi_fmul+0x1d4>
 80003f2:	e759      	b.n	80002a8 <__aeabi_fmul+0x88>
 80003f4:	0022      	movs	r2, r4
 80003f6:	309e      	adds	r0, #158	; 0x9e
 80003f8:	40da      	lsrs	r2, r3
 80003fa:	4084      	lsls	r4, r0
 80003fc:	0013      	movs	r3, r2
 80003fe:	1e62      	subs	r2, r4, #1
 8000400:	4194      	sbcs	r4, r2
 8000402:	431c      	orrs	r4, r3
 8000404:	0763      	lsls	r3, r4, #29
 8000406:	d004      	beq.n	8000412 <__aeabi_fmul+0x1f2>
 8000408:	230f      	movs	r3, #15
 800040a:	4023      	ands	r3, r4
 800040c:	2b04      	cmp	r3, #4
 800040e:	d000      	beq.n	8000412 <__aeabi_fmul+0x1f2>
 8000410:	3404      	adds	r4, #4
 8000412:	0163      	lsls	r3, r4, #5
 8000414:	d51a      	bpl.n	800044c <__aeabi_fmul+0x22c>
 8000416:	2001      	movs	r0, #1
 8000418:	2400      	movs	r4, #0
 800041a:	e747      	b.n	80002ac <__aeabi_fmul+0x8c>
 800041c:	2080      	movs	r0, #128	; 0x80
 800041e:	03c0      	lsls	r0, r0, #15
 8000420:	4204      	tst	r4, r0
 8000422:	d009      	beq.n	8000438 <__aeabi_fmul+0x218>
 8000424:	4643      	mov	r3, r8
 8000426:	4203      	tst	r3, r0
 8000428:	d106      	bne.n	8000438 <__aeabi_fmul+0x218>
 800042a:	4644      	mov	r4, r8
 800042c:	4304      	orrs	r4, r0
 800042e:	0264      	lsls	r4, r4, #9
 8000430:	0039      	movs	r1, r7
 8000432:	20ff      	movs	r0, #255	; 0xff
 8000434:	0a64      	lsrs	r4, r4, #9
 8000436:	e739      	b.n	80002ac <__aeabi_fmul+0x8c>
 8000438:	2080      	movs	r0, #128	; 0x80
 800043a:	03c0      	lsls	r0, r0, #15
 800043c:	4304      	orrs	r4, r0
 800043e:	0264      	lsls	r4, r4, #9
 8000440:	0031      	movs	r1, r6
 8000442:	20ff      	movs	r0, #255	; 0xff
 8000444:	0a64      	lsrs	r4, r4, #9
 8000446:	e731      	b.n	80002ac <__aeabi_fmul+0x8c>
 8000448:	0028      	movs	r0, r5
 800044a:	e765      	b.n	8000318 <__aeabi_fmul+0xf8>
 800044c:	01a4      	lsls	r4, r4, #6
 800044e:	2000      	movs	r0, #0
 8000450:	0a64      	lsrs	r4, r4, #9
 8000452:	e72b      	b.n	80002ac <__aeabi_fmul+0x8c>
 8000454:	2080      	movs	r0, #128	; 0x80
 8000456:	03c0      	lsls	r0, r0, #15
 8000458:	4304      	orrs	r4, r0
 800045a:	0264      	lsls	r4, r4, #9
 800045c:	20ff      	movs	r0, #255	; 0xff
 800045e:	0a64      	lsrs	r4, r4, #9
 8000460:	e724      	b.n	80002ac <__aeabi_fmul+0x8c>
 8000462:	46c0      	nop			; (mov r8, r8)
 8000464:	08003efc 	.word	0x08003efc
 8000468:	f7ffffff 	.word	0xf7ffffff

0800046c <__aeabi_i2f>:
 800046c:	b5f8      	push	{r3, r4, r5, r6, r7, lr}
 800046e:	2800      	cmp	r0, #0
 8000470:	d013      	beq.n	800049a <__aeabi_i2f+0x2e>
 8000472:	17c3      	asrs	r3, r0, #31
 8000474:	18c6      	adds	r6, r0, r3
 8000476:	405e      	eors	r6, r3
 8000478:	0fc4      	lsrs	r4, r0, #31
 800047a:	0030      	movs	r0, r6
 800047c:	f000 f844 	bl	8000508 <__clzsi2>
 8000480:	239e      	movs	r3, #158	; 0x9e
 8000482:	0005      	movs	r5, r0
 8000484:	1a1b      	subs	r3, r3, r0
 8000486:	2b96      	cmp	r3, #150	; 0x96
 8000488:	dc0f      	bgt.n	80004aa <__aeabi_i2f+0x3e>
 800048a:	2808      	cmp	r0, #8
 800048c:	dd01      	ble.n	8000492 <__aeabi_i2f+0x26>
 800048e:	3d08      	subs	r5, #8
 8000490:	40ae      	lsls	r6, r5
 8000492:	0276      	lsls	r6, r6, #9
 8000494:	0a76      	lsrs	r6, r6, #9
 8000496:	b2d8      	uxtb	r0, r3
 8000498:	e002      	b.n	80004a0 <__aeabi_i2f+0x34>
 800049a:	2400      	movs	r4, #0
 800049c:	2000      	movs	r0, #0
 800049e:	2600      	movs	r6, #0
 80004a0:	05c0      	lsls	r0, r0, #23
 80004a2:	4330      	orrs	r0, r6
 80004a4:	07e4      	lsls	r4, r4, #31
 80004a6:	4320      	orrs	r0, r4
 80004a8:	bdf8      	pop	{r3, r4, r5, r6, r7, pc}
 80004aa:	2b99      	cmp	r3, #153	; 0x99
 80004ac:	dd0c      	ble.n	80004c8 <__aeabi_i2f+0x5c>
 80004ae:	2205      	movs	r2, #5
 80004b0:	0031      	movs	r1, r6
 80004b2:	1a12      	subs	r2, r2, r0
 80004b4:	40d1      	lsrs	r1, r2
 80004b6:	000a      	movs	r2, r1
 80004b8:	0001      	movs	r1, r0
 80004ba:	0030      	movs	r0, r6
 80004bc:	311b      	adds	r1, #27
 80004be:	4088      	lsls	r0, r1
 80004c0:	1e41      	subs	r1, r0, #1
 80004c2:	4188      	sbcs	r0, r1
 80004c4:	4302      	orrs	r2, r0
 80004c6:	0016      	movs	r6, r2
 80004c8:	2d05      	cmp	r5, #5
 80004ca:	dc12      	bgt.n	80004f2 <__aeabi_i2f+0x86>
 80004cc:	0031      	movs	r1, r6
 80004ce:	4f0d      	ldr	r7, [pc, #52]	; (8000504 <__aeabi_i2f+0x98>)
 80004d0:	4039      	ands	r1, r7
 80004d2:	0772      	lsls	r2, r6, #29
 80004d4:	d009      	beq.n	80004ea <__aeabi_i2f+0x7e>
 80004d6:	200f      	movs	r0, #15
 80004d8:	4030      	ands	r0, r6
 80004da:	2804      	cmp	r0, #4
 80004dc:	d005      	beq.n	80004ea <__aeabi_i2f+0x7e>
 80004de:	3104      	adds	r1, #4
 80004e0:	014a      	lsls	r2, r1, #5
 80004e2:	d502      	bpl.n	80004ea <__aeabi_i2f+0x7e>
 80004e4:	239f      	movs	r3, #159	; 0x9f
 80004e6:	4039      	ands	r1, r7
 80004e8:	1b5b      	subs	r3, r3, r5
 80004ea:	0189      	lsls	r1, r1, #6
 80004ec:	0a4e      	lsrs	r6, r1, #9
 80004ee:	b2d8      	uxtb	r0, r3
 80004f0:	e7d6      	b.n	80004a0 <__aeabi_i2f+0x34>
 80004f2:	1f6a      	subs	r2, r5, #5
 80004f4:	4096      	lsls	r6, r2
 80004f6:	0031      	movs	r1, r6
 80004f8:	4f02      	ldr	r7, [pc, #8]	; (8000504 <__aeabi_i2f+0x98>)
 80004fa:	4039      	ands	r1, r7
 80004fc:	0772      	lsls	r2, r6, #29
 80004fe:	d0f4      	beq.n	80004ea <__aeabi_i2f+0x7e>
 8000500:	e7e9      	b.n	80004d6 <__aeabi_i2f+0x6a>
 8000502:	46c0      	nop			; (mov r8, r8)
 8000504:	fbffffff 	.word	0xfbffffff

08000508 <__clzsi2>:
 8000508:	211c      	movs	r1, #28
 800050a:	2301      	movs	r3, #1
 800050c:	041b      	lsls	r3, r3, #16
 800050e:	4298      	cmp	r0, r3
 8000510:	d301      	bcc.n	8000516 <__clzsi2+0xe>
 8000512:	0c00      	lsrs	r0, r0, #16
 8000514:	3910      	subs	r1, #16
 8000516:	0a1b      	lsrs	r3, r3, #8
 8000518:	4298      	cmp	r0, r3
 800051a:	d301      	bcc.n	8000520 <__clzsi2+0x18>
 800051c:	0a00      	lsrs	r0, r0, #8
 800051e:	3908      	subs	r1, #8
 8000520:	091b      	lsrs	r3, r3, #4
 8000522:	4298      	cmp	r0, r3
 8000524:	d301      	bcc.n	800052a <__clzsi2+0x22>
 8000526:	0900      	lsrs	r0, r0, #4
 8000528:	3904      	subs	r1, #4
 800052a:	a202      	add	r2, pc, #8	; (adr r2, 8000534 <__clzsi2+0x2c>)
 800052c:	5c10      	ldrb	r0, [r2, r0]
 800052e:	1840      	adds	r0, r0, r1
 8000530:	4770      	bx	lr
 8000532:	46c0      	nop			; (mov r8, r8)
 8000534:	02020304 	.word	0x02020304
 8000538:	01010101 	.word	0x01010101
	...

08000544 <initialize_Sensors>:

/* Private user code ---------------------------------------------------------*/
/* USER CODE BEGIN 0 */

int initialize_Sensors()
{
 8000544:	b5f0      	push	{r4, r5, r6, r7, lr}
 8000546:	b08b      	sub	sp, #44	; 0x2c
 8000548:	af04      	add	r7, sp, #16
	int error_count = 0;
 800054a:	2300      	movs	r3, #0
 800054c:	617b      	str	r3, [r7, #20]
	HAL_StatusTypeDef ret;
	uint8_t buffer;

	//INITIALIZE GYROSCOPE
	ret = HAL_I2C_Mem_Read(&hi2c1, GYRO_DEVADDR, Gyro_WHO_AM_I, 1, &buffer, 1, 5); //This should return "0xd7" for the Gyroscope in the buffer[0]
 800054e:	2142      	movs	r1, #66	; 0x42
 8000550:	4b63      	ldr	r3, [pc, #396]	; (80006e0 <initialize_Sensors+0x19c>)
 8000552:	881a      	ldrh	r2, [r3, #0]
 8000554:	2513      	movs	r5, #19
 8000556:	197c      	adds	r4, r7, r5
 8000558:	4862      	ldr	r0, [pc, #392]	; (80006e4 <initialize_Sensors+0x1a0>)
 800055a:	2305      	movs	r3, #5
 800055c:	9302      	str	r3, [sp, #8]
 800055e:	2301      	movs	r3, #1
 8000560:	9301      	str	r3, [sp, #4]
 8000562:	2609      	movs	r6, #9
 8000564:	19bb      	adds	r3, r7, r6
 8000566:	9300      	str	r3, [sp, #0]
 8000568:	2301      	movs	r3, #1
 800056a:	f001 f96f 	bl	800184c <HAL_I2C_Mem_Read>
 800056e:	0003      	movs	r3, r0
 8000570:	7023      	strb	r3, [r4, #0]
	//Bandwidth BW=4; Full Scale Range FSR= +-250mdps/LSB
	//This leads to a nominal sensitivity of 7.8125 mdps/LSB.
	error_count += (ret!=HAL_OK);
 8000572:	0028      	movs	r0, r5
 8000574:	183b      	adds	r3, r7, r0
 8000576:	781b      	ldrb	r3, [r3, #0]
 8000578:	1e5a      	subs	r2, r3, #1
 800057a:	4193      	sbcs	r3, r2
 800057c:	b2db      	uxtb	r3, r3
 800057e:	001a      	movs	r2, r3
 8000580:	697b      	ldr	r3, [r7, #20]
 8000582:	189b      	adds	r3, r3, r2
 8000584:	617b      	str	r3, [r7, #20]
	uint16_t CTRL_REG0 = 0x0D;
 8000586:	2310      	movs	r3, #16
 8000588:	18fb      	adds	r3, r7, r3
 800058a:	220d      	movs	r2, #13
 800058c:	801a      	strh	r2, [r3, #0]
	uint8_t CTRL_REG0_input = 0b01000011;
 800058e:	2208      	movs	r2, #8
 8000590:	18bb      	adds	r3, r7, r2
 8000592:	2243      	movs	r2, #67	; 0x43
 8000594:	701a      	strb	r2, [r3, #0]
	//ret = initialize_Sensor(GYRO_DEVADDR, Gyro_WHO_AM_I, CTRL_REG0, CTRL_REG0_input, output);
	ret = HAL_I2C_Mem_Write(&hi2c1, GYRO_DEVADDR, CTRL_REG0, 1, &CTRL_REG0_input, 1, 5);
 8000596:	2142      	movs	r1, #66	; 0x42
 8000598:	0005      	movs	r5, r0
 800059a:	183c      	adds	r4, r7, r0
 800059c:	2310      	movs	r3, #16
 800059e:	18fb      	adds	r3, r7, r3
 80005a0:	881a      	ldrh	r2, [r3, #0]
 80005a2:	4850      	ldr	r0, [pc, #320]	; (80006e4 <initialize_Sensors+0x1a0>)
 80005a4:	2305      	movs	r3, #5
 80005a6:	9302      	str	r3, [sp, #8]
 80005a8:	2301      	movs	r3, #1
 80005aa:	9301      	str	r3, [sp, #4]
 80005ac:	2308      	movs	r3, #8
 80005ae:	18fb      	adds	r3, r7, r3
 80005b0:	9300      	str	r3, [sp, #0]
 80005b2:	2301      	movs	r3, #1
 80005b4:	f001 f81c 	bl	80015f0 <HAL_I2C_Mem_Write>
 80005b8:	0003      	movs	r3, r0
 80005ba:	7023      	strb	r3, [r4, #0]
	error_count += (ret!=HAL_OK);
 80005bc:	0028      	movs	r0, r5
 80005be:	183b      	adds	r3, r7, r0
 80005c0:	781b      	ldrb	r3, [r3, #0]
 80005c2:	1e5a      	subs	r2, r3, #1
 80005c4:	4193      	sbcs	r3, r2
 80005c6:	b2db      	uxtb	r3, r3
 80005c8:	001a      	movs	r2, r3
 80005ca:	697b      	ldr	r3, [r7, #20]
 80005cc:	189b      	adds	r3, r3, r2
 80005ce:	617b      	str	r3, [r7, #20]
	//Output Data Rate ODR=12.5Hz; active=1; ready=0
	uint16_t CTRL_REG1 = 0x13;
 80005d0:	230e      	movs	r3, #14
 80005d2:	18fb      	adds	r3, r7, r3
 80005d4:	2213      	movs	r2, #19
 80005d6:	801a      	strh	r2, [r3, #0]
	uint8_t CTRL_REG1_input = 0b00011110;
 80005d8:	1dfb      	adds	r3, r7, #7
 80005da:	221e      	movs	r2, #30
 80005dc:	701a      	strb	r2, [r3, #0]
	//ret = initialize_Sensor(GYRO_DEVADDR, Gyro_WHO_AM_I, CTRL_REG1, CTRL_REG1_input, output);
	ret = HAL_I2C_Mem_Write(&hi2c1, GYRO_DEVADDR, CTRL_REG1, 1, &CTRL_REG1_input, 1, 5);
 80005de:	2142      	movs	r1, #66	; 0x42
 80005e0:	0005      	movs	r5, r0
 80005e2:	183c      	adds	r4, r7, r0
 80005e4:	230e      	movs	r3, #14
 80005e6:	18fb      	adds	r3, r7, r3
 80005e8:	881a      	ldrh	r2, [r3, #0]
 80005ea:	483e      	ldr	r0, [pc, #248]	; (80006e4 <initialize_Sensors+0x1a0>)
 80005ec:	2305      	movs	r3, #5
 80005ee:	9302      	str	r3, [sp, #8]
 80005f0:	2301      	movs	r3, #1
 80005f2:	9301      	str	r3, [sp, #4]
 80005f4:	1dfb      	adds	r3, r7, #7
 80005f6:	9300      	str	r3, [sp, #0]
 80005f8:	2301      	movs	r3, #1
 80005fa:	f000 fff9 	bl	80015f0 <HAL_I2C_Mem_Write>
 80005fe:	0003      	movs	r3, r0
 8000600:	7023      	strb	r3, [r4, #0]
	error_count += (ret!=HAL_OK);
 8000602:	0028      	movs	r0, r5
 8000604:	183b      	adds	r3, r7, r0
 8000606:	781b      	ldrb	r3, [r3, #0]
 8000608:	1e5a      	subs	r2, r3, #1
 800060a:	4193      	sbcs	r3, r2
 800060c:	b2db      	uxtb	r3, r3
 800060e:	001a      	movs	r2, r3
 8000610:	697b      	ldr	r3, [r7, #20]
 8000612:	189b      	adds	r3, r3, r2
 8000614:	617b      	str	r3, [r7, #20]

	//INITIALIZE MAGNETOMETER
	ret = HAL_I2C_Mem_Read(&hi2c1, GYRO_DEVADDR, Gyro_WHO_AM_I, 1, &buffer, 1, 5); //This should return "0xc7" for the Magnetometer/Accelerometer in the buffer[0]
 8000616:	2142      	movs	r1, #66	; 0x42
 8000618:	4b31      	ldr	r3, [pc, #196]	; (80006e0 <initialize_Sensors+0x19c>)
 800061a:	881a      	ldrh	r2, [r3, #0]
 800061c:	0005      	movs	r5, r0
 800061e:	183c      	adds	r4, r7, r0
 8000620:	4830      	ldr	r0, [pc, #192]	; (80006e4 <initialize_Sensors+0x1a0>)
 8000622:	2305      	movs	r3, #5
 8000624:	9302      	str	r3, [sp, #8]
 8000626:	2301      	movs	r3, #1
 8000628:	9301      	str	r3, [sp, #4]
 800062a:	19bb      	adds	r3, r7, r6
 800062c:	9300      	str	r3, [sp, #0]
 800062e:	2301      	movs	r3, #1
 8000630:	f001 f90c 	bl	800184c <HAL_I2C_Mem_Read>
 8000634:	0003      	movs	r3, r0
 8000636:	7023      	strb	r3, [r4, #0]
	error_count += (ret!=HAL_OK);
 8000638:	0028      	movs	r0, r5
 800063a:	183b      	adds	r3, r7, r0
 800063c:	781b      	ldrb	r3, [r3, #0]
 800063e:	1e5a      	subs	r2, r3, #1
 8000640:	4193      	sbcs	r3, r2
 8000642:	b2db      	uxtb	r3, r3
 8000644:	001a      	movs	r2, r3
 8000646:	697b      	ldr	r3, [r7, #20]
 8000648:	189b      	adds	r3, r3, r2
 800064a:	617b      	str	r3, [r7, #20]
	//Output Data Rate ODR=12.5Hz; low_noise=1; active=1;
	uint16_t MA_CTRL_REG1 = 0x2A;
 800064c:	260c      	movs	r6, #12
 800064e:	19bb      	adds	r3, r7, r6
 8000650:	222a      	movs	r2, #42	; 0x2a
 8000652:	801a      	strh	r2, [r3, #0]
	uint8_t MA_CTRL_REG1_input = 0b00101101;
 8000654:	1dbb      	adds	r3, r7, #6
 8000656:	222d      	movs	r2, #45	; 0x2d
 8000658:	701a      	strb	r2, [r3, #0]
	//ret = initialize_Sensor(MAGACC_DEVADDR, MAGACC_WHO_AM_I, MA_CTRL_REG1, MA_CTRL_REG1_input, output);
	ret = HAL_I2C_Mem_Write(&hi2c1, MAGACC_DEVADDR, MA_CTRL_REG1, 1, &MA_CTRL_REG1_input, 1, 5);
 800065a:	4b23      	ldr	r3, [pc, #140]	; (80006e8 <initialize_Sensors+0x1a4>)
 800065c:	8819      	ldrh	r1, [r3, #0]
 800065e:	0005      	movs	r5, r0
 8000660:	183c      	adds	r4, r7, r0
 8000662:	19bb      	adds	r3, r7, r6
 8000664:	881a      	ldrh	r2, [r3, #0]
 8000666:	481f      	ldr	r0, [pc, #124]	; (80006e4 <initialize_Sensors+0x1a0>)
 8000668:	2305      	movs	r3, #5
 800066a:	9302      	str	r3, [sp, #8]
 800066c:	2301      	movs	r3, #1
 800066e:	9301      	str	r3, [sp, #4]
 8000670:	1dbb      	adds	r3, r7, #6
 8000672:	9300      	str	r3, [sp, #0]
 8000674:	2301      	movs	r3, #1
 8000676:	f000 ffbb 	bl	80015f0 <HAL_I2C_Mem_Write>
 800067a:	0003      	movs	r3, r0
 800067c:	7023      	strb	r3, [r4, #0]
	error_count += (ret!=HAL_OK);
 800067e:	0028      	movs	r0, r5
 8000680:	183b      	adds	r3, r7, r0
 8000682:	781b      	ldrb	r3, [r3, #0]
 8000684:	1e5a      	subs	r2, r3, #1
 8000686:	4193      	sbcs	r3, r2
 8000688:	b2db      	uxtb	r3, r3
 800068a:	001a      	movs	r2, r3
 800068c:	697b      	ldr	r3, [r7, #20]
 800068e:	189b      	adds	r3, r3, r2
 8000690:	617b      	str	r3, [r7, #20]
	//This sensor has a nominal sensitivity of 0.1 μT/LSB.
	//Auto-Calibration: disabled; Oversample Ratio OSR=7; Only Magnetometer is active
	uint16_t M_CTRL_REG1 = 0x5B;
 8000692:	260a      	movs	r6, #10
 8000694:	19bb      	adds	r3, r7, r6
 8000696:	225b      	movs	r2, #91	; 0x5b
 8000698:	801a      	strh	r2, [r3, #0]
	uint8_t M_CTRL_REG1_input = 0b00011101;
 800069a:	1d7b      	adds	r3, r7, #5
 800069c:	221d      	movs	r2, #29
 800069e:	701a      	strb	r2, [r3, #0]
	//ret = initialize_Sensor(MAGACC_DEVADDR, MAGACC_WHO_AM_I, M_CTRL_REG1, M_CTRL_REG1_input, output);
	ret = HAL_I2C_Mem_Write(&hi2c1, MAGACC_DEVADDR, M_CTRL_REG1, 1, &M_CTRL_REG1_input, 1, 5);
 80006a0:	4b11      	ldr	r3, [pc, #68]	; (80006e8 <initialize_Sensors+0x1a4>)
 80006a2:	8819      	ldrh	r1, [r3, #0]
 80006a4:	0005      	movs	r5, r0
 80006a6:	183c      	adds	r4, r7, r0
 80006a8:	19bb      	adds	r3, r7, r6
 80006aa:	881a      	ldrh	r2, [r3, #0]
 80006ac:	480d      	ldr	r0, [pc, #52]	; (80006e4 <initialize_Sensors+0x1a0>)
 80006ae:	2305      	movs	r3, #5
 80006b0:	9302      	str	r3, [sp, #8]
 80006b2:	2301      	movs	r3, #1
 80006b4:	9301      	str	r3, [sp, #4]
 80006b6:	1d7b      	adds	r3, r7, #5
 80006b8:	9300      	str	r3, [sp, #0]
 80006ba:	2301      	movs	r3, #1
 80006bc:	f000 ff98 	bl	80015f0 <HAL_I2C_Mem_Write>
 80006c0:	0003      	movs	r3, r0
 80006c2:	7023      	strb	r3, [r4, #0]
	error_count += (ret!=HAL_OK);
 80006c4:	197b      	adds	r3, r7, r5
 80006c6:	781b      	ldrb	r3, [r3, #0]
 80006c8:	1e5a      	subs	r2, r3, #1
 80006ca:	4193      	sbcs	r3, r2
 80006cc:	b2db      	uxtb	r3, r3
 80006ce:	001a      	movs	r2, r3
 80006d0:	697b      	ldr	r3, [r7, #20]
 80006d2:	189b      	adds	r3, r3, r2
 80006d4:	617b      	str	r3, [r7, #20]
	return error_count;
 80006d6:	697b      	ldr	r3, [r7, #20]
}
 80006d8:	0018      	movs	r0, r3
 80006da:	46bd      	mov	sp, r7
 80006dc:	b007      	add	sp, #28
 80006de:	bdf0      	pop	{r4, r5, r6, r7, pc}
 80006e0:	20000002 	.word	0x20000002
 80006e4:	20000038 	.word	0x20000038
 80006e8:	20000008 	.word	0x20000008

080006ec <read_Sensor_data>:
	return ret;
}
*/

HAL_StatusTypeDef read_Sensor_data(int16_t *Data, uint16_t Sensor_address, uint16_t Start_register)
{
 80006ec:	b5b0      	push	{r4, r5, r7, lr}
 80006ee:	b088      	sub	sp, #32
 80006f0:	af04      	add	r7, sp, #16
 80006f2:	6078      	str	r0, [r7, #4]
 80006f4:	0008      	movs	r0, r1
 80006f6:	0011      	movs	r1, r2
 80006f8:	1cbb      	adds	r3, r7, #2
 80006fa:	1c02      	adds	r2, r0, #0
 80006fc:	801a      	strh	r2, [r3, #0]
 80006fe:	003b      	movs	r3, r7
 8000700:	1c0a      	adds	r2, r1, #0
 8000702:	801a      	strh	r2, [r3, #0]
	HAL_StatusTypeDef ret;
	uint8_t buffer[6];
	ret=HAL_I2C_Mem_Read(&hi2c1, Sensor_address, Start_register, 1, buffer, 6, 5);
 8000704:	250f      	movs	r5, #15
 8000706:	197c      	adds	r4, r7, r5
 8000708:	003b      	movs	r3, r7
 800070a:	881a      	ldrh	r2, [r3, #0]
 800070c:	1cbb      	adds	r3, r7, #2
 800070e:	8819      	ldrh	r1, [r3, #0]
 8000710:	481f      	ldr	r0, [pc, #124]	; (8000790 <read_Sensor_data+0xa4>)
 8000712:	2305      	movs	r3, #5
 8000714:	9302      	str	r3, [sp, #8]
 8000716:	2306      	movs	r3, #6
 8000718:	9301      	str	r3, [sp, #4]
 800071a:	2308      	movs	r3, #8
 800071c:	18fb      	adds	r3, r7, r3
 800071e:	9300      	str	r3, [sp, #0]
 8000720:	2301      	movs	r3, #1
 8000722:	f001 f893 	bl	800184c <HAL_I2C_Mem_Read>
 8000726:	0003      	movs	r3, r0
 8000728:	7023      	strb	r3, [r4, #0]
	//HAL_Delay(10);
		if (ret == HAL_ERROR){
 800072a:	197b      	adds	r3, r7, r5
 800072c:	781b      	ldrb	r3, [r3, #0]
 800072e:	2b01      	cmp	r3, #1
 8000730:	d102      	bne.n	8000738 <read_Sensor_data+0x4c>
			return ret;}
 8000732:	197b      	adds	r3, r7, r5
 8000734:	781b      	ldrb	r3, [r3, #0]
 8000736:	e026      	b.n	8000786 <read_Sensor_data+0x9a>
/*	Data[0] = ((uint16_t) buffer[1])<<8 | ((uint16_t) buffer[0]);
	Data[1] = ((uint16_t) buffer[3])<<8 | ((uint16_t) buffer[2]);
	Data[2] = ((uint16_t) buffer[5])<<8 | ((uint16_t) buffer[4]);*/

	Data[0] = ((uint16_t) buffer[0])<<8 | ((uint16_t) buffer[1]);
 8000738:	2008      	movs	r0, #8
 800073a:	183b      	adds	r3, r7, r0
 800073c:	781b      	ldrb	r3, [r3, #0]
 800073e:	021b      	lsls	r3, r3, #8
 8000740:	b21a      	sxth	r2, r3
 8000742:	183b      	adds	r3, r7, r0
 8000744:	785b      	ldrb	r3, [r3, #1]
 8000746:	b21b      	sxth	r3, r3
 8000748:	4313      	orrs	r3, r2
 800074a:	b21a      	sxth	r2, r3
 800074c:	687b      	ldr	r3, [r7, #4]
 800074e:	801a      	strh	r2, [r3, #0]
	Data[1] = ((uint16_t) buffer[2])<<8 | ((uint16_t) buffer[3]);
 8000750:	183b      	adds	r3, r7, r0
 8000752:	789b      	ldrb	r3, [r3, #2]
 8000754:	021b      	lsls	r3, r3, #8
 8000756:	b219      	sxth	r1, r3
 8000758:	183b      	adds	r3, r7, r0
 800075a:	78db      	ldrb	r3, [r3, #3]
 800075c:	b21a      	sxth	r2, r3
 800075e:	687b      	ldr	r3, [r7, #4]
 8000760:	3302      	adds	r3, #2
 8000762:	430a      	orrs	r2, r1
 8000764:	b212      	sxth	r2, r2
 8000766:	801a      	strh	r2, [r3, #0]
	Data[2] = ((uint16_t) buffer[4])<<8 | ((uint16_t) buffer[5]);
 8000768:	183b      	adds	r3, r7, r0
 800076a:	791b      	ldrb	r3, [r3, #4]
 800076c:	021b      	lsls	r3, r3, #8
 800076e:	b219      	sxth	r1, r3
 8000770:	183b      	adds	r3, r7, r0
 8000772:	795b      	ldrb	r3, [r3, #5]
 8000774:	b21a      	sxth	r2, r3
 8000776:	687b      	ldr	r3, [r7, #4]
 8000778:	3304      	adds	r3, #4
 800077a:	430a      	orrs	r2, r1
 800077c:	b212      	sxth	r2, r2
 800077e:	801a      	strh	r2, [r3, #0]
	return ret;
 8000780:	230f      	movs	r3, #15
 8000782:	18fb      	adds	r3, r7, r3
 8000784:	781b      	ldrb	r3, [r3, #0]
}
 8000786:	0018      	movs	r0, r3
 8000788:	46bd      	mov	sp, r7
 800078a:	b004      	add	sp, #16
 800078c:	bdb0      	pop	{r4, r5, r7, pc}
 800078e:	46c0      	nop			; (mov r8, r8)
 8000790:	20000038 	.word	0x20000038

08000794 <convert_Sensor_Data>:

void convert_Sensor_Data(int16_t *rawData, DATA_TypeDef *Data, float conv_factor)
{
 8000794:	b580      	push	{r7, lr}
 8000796:	b084      	sub	sp, #16
 8000798:	af00      	add	r7, sp, #0
 800079a:	60f8      	str	r0, [r7, #12]
 800079c:	60b9      	str	r1, [r7, #8]
 800079e:	607a      	str	r2, [r7, #4]
	Data->x = rawData[0]*conv_factor;
 80007a0:	68fb      	ldr	r3, [r7, #12]
 80007a2:	2200      	movs	r2, #0
 80007a4:	5e9b      	ldrsh	r3, [r3, r2]
 80007a6:	0018      	movs	r0, r3
 80007a8:	f7ff fe60 	bl	800046c <__aeabi_i2f>
 80007ac:	1c03      	adds	r3, r0, #0
 80007ae:	6879      	ldr	r1, [r7, #4]
 80007b0:	1c18      	adds	r0, r3, #0
 80007b2:	f7ff fd35 	bl	8000220 <__aeabi_fmul>
 80007b6:	1c03      	adds	r3, r0, #0
 80007b8:	1c1a      	adds	r2, r3, #0
 80007ba:	68bb      	ldr	r3, [r7, #8]
 80007bc:	601a      	str	r2, [r3, #0]
	Data->y = rawData[1]*conv_factor;
 80007be:	68fb      	ldr	r3, [r7, #12]
 80007c0:	3302      	adds	r3, #2
 80007c2:	2200      	movs	r2, #0
 80007c4:	5e9b      	ldrsh	r3, [r3, r2]
 80007c6:	0018      	movs	r0, r3
 80007c8:	f7ff fe50 	bl	800046c <__aeabi_i2f>
 80007cc:	1c03      	adds	r3, r0, #0
 80007ce:	6879      	ldr	r1, [r7, #4]
 80007d0:	1c18      	adds	r0, r3, #0
 80007d2:	f7ff fd25 	bl	8000220 <__aeabi_fmul>
 80007d6:	1c03      	adds	r3, r0, #0
 80007d8:	1c1a      	adds	r2, r3, #0
 80007da:	68bb      	ldr	r3, [r7, #8]
 80007dc:	605a      	str	r2, [r3, #4]
	Data->z = rawData[2]*conv_factor;
 80007de:	68fb      	ldr	r3, [r7, #12]
 80007e0:	3304      	adds	r3, #4
 80007e2:	2200      	movs	r2, #0
 80007e4:	5e9b      	ldrsh	r3, [r3, r2]
 80007e6:	0018      	movs	r0, r3
 80007e8:	f7ff fe40 	bl	800046c <__aeabi_i2f>
 80007ec:	1c03      	adds	r3, r0, #0
 80007ee:	6879      	ldr	r1, [r7, #4]
 80007f0:	1c18      	adds	r0, r3, #0
 80007f2:	f7ff fd15 	bl	8000220 <__aeabi_fmul>
 80007f6:	1c03      	adds	r3, r0, #0
 80007f8:	1c1a      	adds	r2, r3, #0
 80007fa:	68bb      	ldr	r3, [r7, #8]
 80007fc:	609a      	str	r2, [r3, #8]
}
 80007fe:	46c0      	nop			; (mov r8, r8)
 8000800:	46bd      	mov	sp, r7
 8000802:	b004      	add	sp, #16
 8000804:	bd80      	pop	{r7, pc}
	...

08000808 <HAL_GPIO_EXTI_Callback>:

void HAL_GPIO_EXTI_Callback(uint16_t GPIO_Pin){ // This interrupt handles the push of the blue button
 8000808:	b580      	push	{r7, lr}
 800080a:	b082      	sub	sp, #8
 800080c:	af00      	add	r7, sp, #0
 800080e:	0002      	movs	r2, r0
 8000810:	1dbb      	adds	r3, r7, #6
 8000812:	801a      	strh	r2, [r3, #0]

	//uint8_t rawData[2];
	//HAL_StatusTypeDef ret;
	//ret=HAL_I2C_Mem_Read(&hi2c1, GYRO_DEVADDR_R, Gyro_MSB_X, 1, rawData, 2, 5000);
	HAL_GPIO_TogglePin(LD3_GPIO_Port, LD3_Pin);
 8000814:	2380      	movs	r3, #128	; 0x80
 8000816:	009b      	lsls	r3, r3, #2
 8000818:	4a04      	ldr	r2, [pc, #16]	; (800082c <HAL_GPIO_EXTI_Callback+0x24>)
 800081a:	0019      	movs	r1, r3
 800081c:	0010      	movs	r0, r2
 800081e:	f000 fe1a 	bl	8001456 <HAL_GPIO_TogglePin>
}
 8000822:	46c0      	nop			; (mov r8, r8)
 8000824:	46bd      	mov	sp, r7
 8000826:	b002      	add	sp, #8
 8000828:	bd80      	pop	{r7, pc}
 800082a:	46c0      	nop			; (mov r8, r8)
 800082c:	48000800 	.word	0x48000800

08000830 <main>:
/**
  * @brief  The application entry point.
  * @retval int
  */
int main(void)
{
 8000830:	b5f0      	push	{r4, r5, r6, r7, lr}
 8000832:	b08d      	sub	sp, #52	; 0x34
 8000834:	af00      	add	r7, sp, #0
  /* USER CODE END 1 */

  /* MCU Configuration--------------------------------------------------------*/

  /* Reset of all peripherals, Initializes the Flash interface and the Systick. */
  HAL_Init();
 8000836:	f000 fac9 	bl	8000dcc <HAL_Init>
  /* USER CODE BEGIN Init */

  /* USER CODE END Init */

  /* Configure the system clock */
  SystemClock_Config();
 800083a:	f000 f83d 	bl	80008b8 <SystemClock_Config>
  /* USER CODE BEGIN SysInit */

  /* USER CODE END SysInit */

  /* Initialize all configured peripherals */
  MX_GPIO_Init();
 800083e:	f000 f937 	bl	8000ab0 <MX_GPIO_Init>
  MX_I2C1_Init();
 8000842:	f000 f89b 	bl	800097c <MX_I2C1_Init>
  MX_TIM1_Init();
 8000846:	f000 f8d9 	bl	80009fc <MX_TIM1_Init>
  DATA_TypeDef Gyro_Data;
  int16_t Mag_rawData[3];
  DATA_TypeDef Mag_Data;
  HAL_StatusTypeDef ret;

  int init_errors = initialize_Sensors();
 800084a:	f7ff fe7b 	bl	8000544 <initialize_Sensors>
 800084e:	0003      	movs	r3, r0
 8000850:	62fb      	str	r3, [r7, #44]	; 0x2c
  /* Infinite loop */
  /* USER CODE BEGIN WHILE */

  while (1)
  {
	  ret=read_Sensor_data(Gyro_rawData, GYRO_DEVADDR, Gyro_MSB_X);
 8000852:	2142      	movs	r1, #66	; 0x42
 8000854:	4b14      	ldr	r3, [pc, #80]	; (80008a8 <main+0x78>)
 8000856:	881a      	ldrh	r2, [r3, #0]
 8000858:	252b      	movs	r5, #43	; 0x2b
 800085a:	197c      	adds	r4, r7, r5
 800085c:	2624      	movs	r6, #36	; 0x24
 800085e:	19bb      	adds	r3, r7, r6
 8000860:	0018      	movs	r0, r3
 8000862:	f7ff ff43 	bl	80006ec <read_Sensor_data>
 8000866:	0003      	movs	r3, r0
 8000868:	7023      	strb	r3, [r4, #0]
	  ret=read_Sensor_data(Mag_rawData, MAGACC_DEVADDR, MAG_MSB_X);
 800086a:	4b10      	ldr	r3, [pc, #64]	; (80008ac <main+0x7c>)
 800086c:	8819      	ldrh	r1, [r3, #0]
 800086e:	2233      	movs	r2, #51	; 0x33
 8000870:	197c      	adds	r4, r7, r5
 8000872:	2510      	movs	r5, #16
 8000874:	197b      	adds	r3, r7, r5
 8000876:	0018      	movs	r0, r3
 8000878:	f7ff ff38 	bl	80006ec <read_Sensor_data>
 800087c:	0003      	movs	r3, r0
 800087e:	7023      	strb	r3, [r4, #0]
	  convert_Sensor_Data(Gyro_rawData, &Gyro_Data, Gyro_conv_factor);
 8000880:	4b0b      	ldr	r3, [pc, #44]	; (80008b0 <main+0x80>)
 8000882:	681a      	ldr	r2, [r3, #0]
 8000884:	2318      	movs	r3, #24
 8000886:	18f9      	adds	r1, r7, r3
 8000888:	19bb      	adds	r3, r7, r6
 800088a:	0018      	movs	r0, r3
 800088c:	f7ff ff82 	bl	8000794 <convert_Sensor_Data>
	  convert_Sensor_Data(Mag_rawData, &Mag_Data, Mag_conv_factor);
 8000890:	4b08      	ldr	r3, [pc, #32]	; (80008b4 <main+0x84>)
 8000892:	681a      	ldr	r2, [r3, #0]
 8000894:	1d39      	adds	r1, r7, #4
 8000896:	197b      	adds	r3, r7, r5
 8000898:	0018      	movs	r0, r3
 800089a:	f7ff ff7b 	bl	8000794 <convert_Sensor_Data>

	  HAL_Delay(10);
 800089e:	200a      	movs	r0, #10
 80008a0:	f000 faf8 	bl	8000e94 <HAL_Delay>
	  ret=read_Sensor_data(Gyro_rawData, GYRO_DEVADDR, Gyro_MSB_X);
 80008a4:	e7d5      	b.n	8000852 <main+0x22>
 80008a6:	46c0      	nop			; (mov r8, r8)
 80008a8:	20000000 	.word	0x20000000
 80008ac:	20000008 	.word	0x20000008
 80008b0:	20000004 	.word	0x20000004
 80008b4:	2000000c 	.word	0x2000000c

080008b8 <SystemClock_Config>:
/**
  * @brief System Clock Configuration
  * @retval None
  */
void SystemClock_Config(void)
{
 80008b8:	b590      	push	{r4, r7, lr}
 80008ba:	b097      	sub	sp, #92	; 0x5c
 80008bc:	af00      	add	r7, sp, #0
  RCC_OscInitTypeDef RCC_OscInitStruct = {0};
 80008be:	2428      	movs	r4, #40	; 0x28
 80008c0:	193b      	adds	r3, r7, r4
 80008c2:	0018      	movs	r0, r3
 80008c4:	2330      	movs	r3, #48	; 0x30
 80008c6:	001a      	movs	r2, r3
 80008c8:	2100      	movs	r1, #0
 80008ca:	f003 faf3 	bl	8003eb4 <memset>
  RCC_ClkInitTypeDef RCC_ClkInitStruct = {0};
 80008ce:	2318      	movs	r3, #24
 80008d0:	18fb      	adds	r3, r7, r3
 80008d2:	0018      	movs	r0, r3
 80008d4:	2310      	movs	r3, #16
 80008d6:	001a      	movs	r2, r3
 80008d8:	2100      	movs	r1, #0
 80008da:	f003 faeb 	bl	8003eb4 <memset>
  RCC_PeriphCLKInitTypeDef PeriphClkInit = {0};
 80008de:	1d3b      	adds	r3, r7, #4
 80008e0:	0018      	movs	r0, r3
 80008e2:	2314      	movs	r3, #20
 80008e4:	001a      	movs	r2, r3
 80008e6:	2100      	movs	r1, #0
 80008e8:	f003 fae4 	bl	8003eb4 <memset>

  /** Initializes the RCC Oscillators according to the specified parameters
  * in the RCC_OscInitTypeDef structure.
  */
  RCC_OscInitStruct.OscillatorType = RCC_OSCILLATORTYPE_HSI;
 80008ec:	0021      	movs	r1, r4
 80008ee:	187b      	adds	r3, r7, r1
 80008f0:	2202      	movs	r2, #2
 80008f2:	601a      	str	r2, [r3, #0]
  RCC_OscInitStruct.HSIState = RCC_HSI_ON;
 80008f4:	187b      	adds	r3, r7, r1
 80008f6:	2201      	movs	r2, #1
 80008f8:	60da      	str	r2, [r3, #12]
  RCC_OscInitStruct.HSICalibrationValue = RCC_HSICALIBRATION_DEFAULT;
 80008fa:	187b      	adds	r3, r7, r1
 80008fc:	2210      	movs	r2, #16
 80008fe:	611a      	str	r2, [r3, #16]
  RCC_OscInitStruct.PLL.PLLState = RCC_PLL_ON;
 8000900:	187b      	adds	r3, r7, r1
 8000902:	2202      	movs	r2, #2
 8000904:	621a      	str	r2, [r3, #32]
  RCC_OscInitStruct.PLL.PLLSource = RCC_PLLSOURCE_HSI;
 8000906:	187b      	adds	r3, r7, r1
 8000908:	2200      	movs	r2, #0
 800090a:	625a      	str	r2, [r3, #36]	; 0x24
  RCC_OscInitStruct.PLL.PLLMUL = RCC_PLL_MUL12;
 800090c:	187b      	adds	r3, r7, r1
 800090e:	22a0      	movs	r2, #160	; 0xa0
 8000910:	0392      	lsls	r2, r2, #14
 8000912:	629a      	str	r2, [r3, #40]	; 0x28
  RCC_OscInitStruct.PLL.PREDIV = RCC_PREDIV_DIV1;
 8000914:	187b      	adds	r3, r7, r1
 8000916:	2200      	movs	r2, #0
 8000918:	62da      	str	r2, [r3, #44]	; 0x2c
  if (HAL_RCC_OscConfig(&RCC_OscInitStruct) != HAL_OK)
 800091a:	187b      	adds	r3, r7, r1
 800091c:	0018      	movs	r0, r3
 800091e:	f002 f991 	bl	8002c44 <HAL_RCC_OscConfig>
 8000922:	1e03      	subs	r3, r0, #0
 8000924:	d001      	beq.n	800092a <SystemClock_Config+0x72>
  {
    Error_Handler();
 8000926:	f000 f935 	bl	8000b94 <Error_Handler>
  }

  /** Initializes the CPU, AHB and APB buses clocks
  */
  RCC_ClkInitStruct.ClockType = RCC_CLOCKTYPE_HCLK|RCC_CLOCKTYPE_SYSCLK
 800092a:	2118      	movs	r1, #24
 800092c:	187b      	adds	r3, r7, r1
 800092e:	2207      	movs	r2, #7
 8000930:	601a      	str	r2, [r3, #0]
                              |RCC_CLOCKTYPE_PCLK1;
  RCC_ClkInitStruct.SYSCLKSource = RCC_SYSCLKSOURCE_PLLCLK;
 8000932:	187b      	adds	r3, r7, r1
 8000934:	2202      	movs	r2, #2
 8000936:	605a      	str	r2, [r3, #4]
  RCC_ClkInitStruct.AHBCLKDivider = RCC_SYSCLK_DIV1;
 8000938:	187b      	adds	r3, r7, r1
 800093a:	2200      	movs	r2, #0
 800093c:	609a      	str	r2, [r3, #8]
  RCC_ClkInitStruct.APB1CLKDivider = RCC_HCLK_DIV1;
 800093e:	187b      	adds	r3, r7, r1
 8000940:	2200      	movs	r2, #0
 8000942:	60da      	str	r2, [r3, #12]

  if (HAL_RCC_ClockConfig(&RCC_ClkInitStruct, FLASH_LATENCY_1) != HAL_OK)
 8000944:	187b      	adds	r3, r7, r1
 8000946:	2101      	movs	r1, #1
 8000948:	0018      	movs	r0, r3
 800094a:	f002 fc95 	bl	8003278 <HAL_RCC_ClockConfig>
 800094e:	1e03      	subs	r3, r0, #0
 8000950:	d001      	beq.n	8000956 <SystemClock_Config+0x9e>
  {
    Error_Handler();
 8000952:	f000 f91f 	bl	8000b94 <Error_Handler>
  }
  PeriphClkInit.PeriphClockSelection = RCC_PERIPHCLK_I2C1;
 8000956:	1d3b      	adds	r3, r7, #4
 8000958:	2220      	movs	r2, #32
 800095a:	601a      	str	r2, [r3, #0]
  PeriphClkInit.I2c1ClockSelection = RCC_I2C1CLKSOURCE_HSI;
 800095c:	1d3b      	adds	r3, r7, #4
 800095e:	2200      	movs	r2, #0
 8000960:	60da      	str	r2, [r3, #12]
  if (HAL_RCCEx_PeriphCLKConfig(&PeriphClkInit) != HAL_OK)
 8000962:	1d3b      	adds	r3, r7, #4
 8000964:	0018      	movs	r0, r3
 8000966:	f002 fdb9 	bl	80034dc <HAL_RCCEx_PeriphCLKConfig>
 800096a:	1e03      	subs	r3, r0, #0
 800096c:	d001      	beq.n	8000972 <SystemClock_Config+0xba>
  {
    Error_Handler();
 800096e:	f000 f911 	bl	8000b94 <Error_Handler>
  }
}
 8000972:	46c0      	nop			; (mov r8, r8)
 8000974:	46bd      	mov	sp, r7
 8000976:	b017      	add	sp, #92	; 0x5c
 8000978:	bd90      	pop	{r4, r7, pc}
	...

0800097c <MX_I2C1_Init>:
  * @brief I2C1 Initialization Function
  * @param None
  * @retval None
  */
static void MX_I2C1_Init(void)
{
 800097c:	b580      	push	{r7, lr}
 800097e:	af00      	add	r7, sp, #0
  /* USER CODE END I2C1_Init 0 */

  /* USER CODE BEGIN I2C1_Init 1 */

  /* USER CODE END I2C1_Init 1 */
  hi2c1.Instance = I2C1;
 8000980:	4b1b      	ldr	r3, [pc, #108]	; (80009f0 <MX_I2C1_Init+0x74>)
 8000982:	4a1c      	ldr	r2, [pc, #112]	; (80009f4 <MX_I2C1_Init+0x78>)
 8000984:	601a      	str	r2, [r3, #0]
  hi2c1.Init.Timing = 0x2000090E;
 8000986:	4b1a      	ldr	r3, [pc, #104]	; (80009f0 <MX_I2C1_Init+0x74>)
 8000988:	4a1b      	ldr	r2, [pc, #108]	; (80009f8 <MX_I2C1_Init+0x7c>)
 800098a:	605a      	str	r2, [r3, #4]
  hi2c1.Init.OwnAddress1 = 0;
 800098c:	4b18      	ldr	r3, [pc, #96]	; (80009f0 <MX_I2C1_Init+0x74>)
 800098e:	2200      	movs	r2, #0
 8000990:	609a      	str	r2, [r3, #8]
  hi2c1.Init.AddressingMode = I2C_ADDRESSINGMODE_7BIT;
 8000992:	4b17      	ldr	r3, [pc, #92]	; (80009f0 <MX_I2C1_Init+0x74>)
 8000994:	2201      	movs	r2, #1
 8000996:	60da      	str	r2, [r3, #12]
  hi2c1.Init.DualAddressMode = I2C_DUALADDRESS_DISABLE;
 8000998:	4b15      	ldr	r3, [pc, #84]	; (80009f0 <MX_I2C1_Init+0x74>)
 800099a:	2200      	movs	r2, #0
 800099c:	611a      	str	r2, [r3, #16]
  hi2c1.Init.OwnAddress2 = 0;
 800099e:	4b14      	ldr	r3, [pc, #80]	; (80009f0 <MX_I2C1_Init+0x74>)
 80009a0:	2200      	movs	r2, #0
 80009a2:	615a      	str	r2, [r3, #20]
  hi2c1.Init.OwnAddress2Masks = I2C_OA2_NOMASK;
 80009a4:	4b12      	ldr	r3, [pc, #72]	; (80009f0 <MX_I2C1_Init+0x74>)
 80009a6:	2200      	movs	r2, #0
 80009a8:	619a      	str	r2, [r3, #24]
  hi2c1.Init.GeneralCallMode = I2C_GENERALCALL_DISABLE;
 80009aa:	4b11      	ldr	r3, [pc, #68]	; (80009f0 <MX_I2C1_Init+0x74>)
 80009ac:	2200      	movs	r2, #0
 80009ae:	61da      	str	r2, [r3, #28]
  hi2c1.Init.NoStretchMode = I2C_NOSTRETCH_DISABLE;
 80009b0:	4b0f      	ldr	r3, [pc, #60]	; (80009f0 <MX_I2C1_Init+0x74>)
 80009b2:	2200      	movs	r2, #0
 80009b4:	621a      	str	r2, [r3, #32]
  if (HAL_I2C_Init(&hi2c1) != HAL_OK)
 80009b6:	4b0e      	ldr	r3, [pc, #56]	; (80009f0 <MX_I2C1_Init+0x74>)
 80009b8:	0018      	movs	r0, r3
 80009ba:	f000 fd83 	bl	80014c4 <HAL_I2C_Init>
 80009be:	1e03      	subs	r3, r0, #0
 80009c0:	d001      	beq.n	80009c6 <MX_I2C1_Init+0x4a>
  {
    Error_Handler();
 80009c2:	f000 f8e7 	bl	8000b94 <Error_Handler>
  }

  /** Configure Analogue filter
  */
  if (HAL_I2CEx_ConfigAnalogFilter(&hi2c1, I2C_ANALOGFILTER_ENABLE) != HAL_OK)
 80009c6:	4b0a      	ldr	r3, [pc, #40]	; (80009f0 <MX_I2C1_Init+0x74>)
 80009c8:	2100      	movs	r1, #0
 80009ca:	0018      	movs	r0, r3
 80009cc:	f002 f8a2 	bl	8002b14 <HAL_I2CEx_ConfigAnalogFilter>
 80009d0:	1e03      	subs	r3, r0, #0
 80009d2:	d001      	beq.n	80009d8 <MX_I2C1_Init+0x5c>
  {
    Error_Handler();
 80009d4:	f000 f8de 	bl	8000b94 <Error_Handler>
  }

  /** Configure Digital filter
  */
  if (HAL_I2CEx_ConfigDigitalFilter(&hi2c1, 0) != HAL_OK)
 80009d8:	4b05      	ldr	r3, [pc, #20]	; (80009f0 <MX_I2C1_Init+0x74>)
 80009da:	2100      	movs	r1, #0
 80009dc:	0018      	movs	r0, r3
 80009de:	f002 f8e5 	bl	8002bac <HAL_I2CEx_ConfigDigitalFilter>
 80009e2:	1e03      	subs	r3, r0, #0
 80009e4:	d001      	beq.n	80009ea <MX_I2C1_Init+0x6e>
  {
    Error_Handler();
 80009e6:	f000 f8d5 	bl	8000b94 <Error_Handler>
  }
  /* USER CODE BEGIN I2C1_Init 2 */

  /* USER CODE END I2C1_Init 2 */

}
 80009ea:	46c0      	nop			; (mov r8, r8)
 80009ec:	46bd      	mov	sp, r7
 80009ee:	bd80      	pop	{r7, pc}
 80009f0:	20000038 	.word	0x20000038
 80009f4:	40005400 	.word	0x40005400
 80009f8:	2000090e 	.word	0x2000090e

080009fc <MX_TIM1_Init>:
  * @brief TIM1 Initialization Function
  * @param None
  * @retval None
  */
static void MX_TIM1_Init(void)
{
 80009fc:	b580      	push	{r7, lr}
 80009fe:	b086      	sub	sp, #24
 8000a00:	af00      	add	r7, sp, #0

  /* USER CODE BEGIN TIM1_Init 0 */

  /* USER CODE END TIM1_Init 0 */

  TIM_ClockConfigTypeDef sClockSourceConfig = {0};
 8000a02:	2308      	movs	r3, #8
 8000a04:	18fb      	adds	r3, r7, r3
 8000a06:	0018      	movs	r0, r3
 8000a08:	2310      	movs	r3, #16
 8000a0a:	001a      	movs	r2, r3
 8000a0c:	2100      	movs	r1, #0
 8000a0e:	f003 fa51 	bl	8003eb4 <memset>
  TIM_MasterConfigTypeDef sMasterConfig = {0};
 8000a12:	003b      	movs	r3, r7
 8000a14:	0018      	movs	r0, r3
 8000a16:	2308      	movs	r3, #8
 8000a18:	001a      	movs	r2, r3
 8000a1a:	2100      	movs	r1, #0
 8000a1c:	f003 fa4a 	bl	8003eb4 <memset>

  /* USER CODE BEGIN TIM1_Init 1 */

  /* USER CODE END TIM1_Init 1 */
  htim1.Instance = TIM1;
 8000a20:	4b1f      	ldr	r3, [pc, #124]	; (8000aa0 <MX_TIM1_Init+0xa4>)
 8000a22:	4a20      	ldr	r2, [pc, #128]	; (8000aa4 <MX_TIM1_Init+0xa8>)
 8000a24:	601a      	str	r2, [r3, #0]
  htim1.Init.Prescaler = 48000;
 8000a26:	4b1e      	ldr	r3, [pc, #120]	; (8000aa0 <MX_TIM1_Init+0xa4>)
 8000a28:	4a1f      	ldr	r2, [pc, #124]	; (8000aa8 <MX_TIM1_Init+0xac>)
 8000a2a:	605a      	str	r2, [r3, #4]
  htim1.Init.CounterMode = TIM_COUNTERMODE_DOWN;
 8000a2c:	4b1c      	ldr	r3, [pc, #112]	; (8000aa0 <MX_TIM1_Init+0xa4>)
 8000a2e:	2210      	movs	r2, #16
 8000a30:	609a      	str	r2, [r3, #8]
  htim1.Init.Period = 5000;
 8000a32:	4b1b      	ldr	r3, [pc, #108]	; (8000aa0 <MX_TIM1_Init+0xa4>)
 8000a34:	4a1d      	ldr	r2, [pc, #116]	; (8000aac <MX_TIM1_Init+0xb0>)
 8000a36:	60da      	str	r2, [r3, #12]
  htim1.Init.ClockDivision = TIM_CLOCKDIVISION_DIV1;
 8000a38:	4b19      	ldr	r3, [pc, #100]	; (8000aa0 <MX_TIM1_Init+0xa4>)
 8000a3a:	2200      	movs	r2, #0
 8000a3c:	611a      	str	r2, [r3, #16]
  htim1.Init.RepetitionCounter = 0;
 8000a3e:	4b18      	ldr	r3, [pc, #96]	; (8000aa0 <MX_TIM1_Init+0xa4>)
 8000a40:	2200      	movs	r2, #0
 8000a42:	615a      	str	r2, [r3, #20]
  htim1.Init.AutoReloadPreload = TIM_AUTORELOAD_PRELOAD_DISABLE;
 8000a44:	4b16      	ldr	r3, [pc, #88]	; (8000aa0 <MX_TIM1_Init+0xa4>)
 8000a46:	2200      	movs	r2, #0
 8000a48:	619a      	str	r2, [r3, #24]
  if (HAL_TIM_Base_Init(&htim1) != HAL_OK)
 8000a4a:	4b15      	ldr	r3, [pc, #84]	; (8000aa0 <MX_TIM1_Init+0xa4>)
 8000a4c:	0018      	movs	r0, r3
 8000a4e:	f002 fe23 	bl	8003698 <HAL_TIM_Base_Init>
 8000a52:	1e03      	subs	r3, r0, #0
 8000a54:	d001      	beq.n	8000a5a <MX_TIM1_Init+0x5e>
  {
    Error_Handler();
 8000a56:	f000 f89d 	bl	8000b94 <Error_Handler>
  }
  sClockSourceConfig.ClockSource = TIM_CLOCKSOURCE_INTERNAL;
 8000a5a:	2108      	movs	r1, #8
 8000a5c:	187b      	adds	r3, r7, r1
 8000a5e:	2280      	movs	r2, #128	; 0x80
 8000a60:	0152      	lsls	r2, r2, #5
 8000a62:	601a      	str	r2, [r3, #0]
  if (HAL_TIM_ConfigClockSource(&htim1, &sClockSourceConfig) != HAL_OK)
 8000a64:	187a      	adds	r2, r7, r1
 8000a66:	4b0e      	ldr	r3, [pc, #56]	; (8000aa0 <MX_TIM1_Init+0xa4>)
 8000a68:	0011      	movs	r1, r2
 8000a6a:	0018      	movs	r0, r3
 8000a6c:	f002 ff7a 	bl	8003964 <HAL_TIM_ConfigClockSource>
 8000a70:	1e03      	subs	r3, r0, #0
 8000a72:	d001      	beq.n	8000a78 <MX_TIM1_Init+0x7c>
  {
    Error_Handler();
 8000a74:	f000 f88e 	bl	8000b94 <Error_Handler>
  }
  sMasterConfig.MasterOutputTrigger = TIM_TRGO_RESET;
 8000a78:	003b      	movs	r3, r7
 8000a7a:	2200      	movs	r2, #0
 8000a7c:	601a      	str	r2, [r3, #0]
  sMasterConfig.MasterSlaveMode = TIM_MASTERSLAVEMODE_DISABLE;
 8000a7e:	003b      	movs	r3, r7
 8000a80:	2200      	movs	r2, #0
 8000a82:	605a      	str	r2, [r3, #4]
  if (HAL_TIMEx_MasterConfigSynchronization(&htim1, &sMasterConfig) != HAL_OK)
 8000a84:	003a      	movs	r2, r7
 8000a86:	4b06      	ldr	r3, [pc, #24]	; (8000aa0 <MX_TIM1_Init+0xa4>)
 8000a88:	0011      	movs	r1, r2
 8000a8a:	0018      	movs	r0, r3
 8000a8c:	f003 f980 	bl	8003d90 <HAL_TIMEx_MasterConfigSynchronization>
 8000a90:	1e03      	subs	r3, r0, #0
 8000a92:	d001      	beq.n	8000a98 <MX_TIM1_Init+0x9c>
  {
    Error_Handler();
 8000a94:	f000 f87e 	bl	8000b94 <Error_Handler>
  }
  /* USER CODE BEGIN TIM1_Init 2 */

  /* USER CODE END TIM1_Init 2 */

}
 8000a98:	46c0      	nop			; (mov r8, r8)
 8000a9a:	46bd      	mov	sp, r7
 8000a9c:	b006      	add	sp, #24
 8000a9e:	bd80      	pop	{r7, pc}
 8000aa0:	20000084 	.word	0x20000084
 8000aa4:	40012c00 	.word	0x40012c00
 8000aa8:	0000bb80 	.word	0x0000bb80
 8000aac:	00001388 	.word	0x00001388

08000ab0 <MX_GPIO_Init>:
  * @brief GPIO Initialization Function
  * @param None
  * @retval None
  */
static void MX_GPIO_Init(void)
{
 8000ab0:	b590      	push	{r4, r7, lr}
 8000ab2:	b089      	sub	sp, #36	; 0x24
 8000ab4:	af00      	add	r7, sp, #0
  GPIO_InitTypeDef GPIO_InitStruct = {0};
 8000ab6:	240c      	movs	r4, #12
 8000ab8:	193b      	adds	r3, r7, r4
 8000aba:	0018      	movs	r0, r3
 8000abc:	2314      	movs	r3, #20
 8000abe:	001a      	movs	r2, r3
 8000ac0:	2100      	movs	r1, #0
 8000ac2:	f003 f9f7 	bl	8003eb4 <memset>

  /* GPIO Ports Clock Enable */
  __HAL_RCC_GPIOA_CLK_ENABLE();
 8000ac6:	4b31      	ldr	r3, [pc, #196]	; (8000b8c <MX_GPIO_Init+0xdc>)
 8000ac8:	695a      	ldr	r2, [r3, #20]
 8000aca:	4b30      	ldr	r3, [pc, #192]	; (8000b8c <MX_GPIO_Init+0xdc>)
 8000acc:	2180      	movs	r1, #128	; 0x80
 8000ace:	0289      	lsls	r1, r1, #10
 8000ad0:	430a      	orrs	r2, r1
 8000ad2:	615a      	str	r2, [r3, #20]
 8000ad4:	4b2d      	ldr	r3, [pc, #180]	; (8000b8c <MX_GPIO_Init+0xdc>)
 8000ad6:	695a      	ldr	r2, [r3, #20]
 8000ad8:	2380      	movs	r3, #128	; 0x80
 8000ada:	029b      	lsls	r3, r3, #10
 8000adc:	4013      	ands	r3, r2
 8000ade:	60bb      	str	r3, [r7, #8]
 8000ae0:	68bb      	ldr	r3, [r7, #8]
  __HAL_RCC_GPIOC_CLK_ENABLE();
 8000ae2:	4b2a      	ldr	r3, [pc, #168]	; (8000b8c <MX_GPIO_Init+0xdc>)
 8000ae4:	695a      	ldr	r2, [r3, #20]
 8000ae6:	4b29      	ldr	r3, [pc, #164]	; (8000b8c <MX_GPIO_Init+0xdc>)
 8000ae8:	2180      	movs	r1, #128	; 0x80
 8000aea:	0309      	lsls	r1, r1, #12
 8000aec:	430a      	orrs	r2, r1
 8000aee:	615a      	str	r2, [r3, #20]
 8000af0:	4b26      	ldr	r3, [pc, #152]	; (8000b8c <MX_GPIO_Init+0xdc>)
 8000af2:	695a      	ldr	r2, [r3, #20]
 8000af4:	2380      	movs	r3, #128	; 0x80
 8000af6:	031b      	lsls	r3, r3, #12
 8000af8:	4013      	ands	r3, r2
 8000afa:	607b      	str	r3, [r7, #4]
 8000afc:	687b      	ldr	r3, [r7, #4]
  __HAL_RCC_GPIOB_CLK_ENABLE();
 8000afe:	4b23      	ldr	r3, [pc, #140]	; (8000b8c <MX_GPIO_Init+0xdc>)
 8000b00:	695a      	ldr	r2, [r3, #20]
 8000b02:	4b22      	ldr	r3, [pc, #136]	; (8000b8c <MX_GPIO_Init+0xdc>)
 8000b04:	2180      	movs	r1, #128	; 0x80
 8000b06:	02c9      	lsls	r1, r1, #11
 8000b08:	430a      	orrs	r2, r1
 8000b0a:	615a      	str	r2, [r3, #20]
 8000b0c:	4b1f      	ldr	r3, [pc, #124]	; (8000b8c <MX_GPIO_Init+0xdc>)
 8000b0e:	695a      	ldr	r2, [r3, #20]
 8000b10:	2380      	movs	r3, #128	; 0x80
 8000b12:	02db      	lsls	r3, r3, #11
 8000b14:	4013      	ands	r3, r2
 8000b16:	603b      	str	r3, [r7, #0]
 8000b18:	683b      	ldr	r3, [r7, #0]

  /*Configure GPIO pin Output Level */
  HAL_GPIO_WritePin(GPIOC, LD4_Pin|LD3_Pin, GPIO_PIN_RESET);
 8000b1a:	23c0      	movs	r3, #192	; 0xc0
 8000b1c:	009b      	lsls	r3, r3, #2
 8000b1e:	481c      	ldr	r0, [pc, #112]	; (8000b90 <MX_GPIO_Init+0xe0>)
 8000b20:	2200      	movs	r2, #0
 8000b22:	0019      	movs	r1, r3
 8000b24:	f000 fc7a 	bl	800141c <HAL_GPIO_WritePin>

  /*Configure GPIO pin : B1_Pin */
  GPIO_InitStruct.Pin = B1_Pin;
 8000b28:	193b      	adds	r3, r7, r4
 8000b2a:	2201      	movs	r2, #1
 8000b2c:	601a      	str	r2, [r3, #0]
  GPIO_InitStruct.Mode = GPIO_MODE_IT_RISING;
 8000b2e:	193b      	adds	r3, r7, r4
 8000b30:	2288      	movs	r2, #136	; 0x88
 8000b32:	0352      	lsls	r2, r2, #13
 8000b34:	605a      	str	r2, [r3, #4]
  GPIO_InitStruct.Pull = GPIO_NOPULL;
 8000b36:	193b      	adds	r3, r7, r4
 8000b38:	2200      	movs	r2, #0
 8000b3a:	609a      	str	r2, [r3, #8]
  HAL_GPIO_Init(B1_GPIO_Port, &GPIO_InitStruct);
 8000b3c:	193a      	adds	r2, r7, r4
 8000b3e:	2390      	movs	r3, #144	; 0x90
 8000b40:	05db      	lsls	r3, r3, #23
 8000b42:	0011      	movs	r1, r2
 8000b44:	0018      	movs	r0, r3
 8000b46:	f000 faf9 	bl	800113c <HAL_GPIO_Init>

  /*Configure GPIO pins : LD4_Pin LD3_Pin */
  GPIO_InitStruct.Pin = LD4_Pin|LD3_Pin;
 8000b4a:	0021      	movs	r1, r4
 8000b4c:	187b      	adds	r3, r7, r1
 8000b4e:	22c0      	movs	r2, #192	; 0xc0
 8000b50:	0092      	lsls	r2, r2, #2
 8000b52:	601a      	str	r2, [r3, #0]
  GPIO_InitStruct.Mode = GPIO_MODE_OUTPUT_PP;
 8000b54:	187b      	adds	r3, r7, r1
 8000b56:	2201      	movs	r2, #1
 8000b58:	605a      	str	r2, [r3, #4]
  GPIO_InitStruct.Pull = GPIO_NOPULL;
 8000b5a:	187b      	adds	r3, r7, r1
 8000b5c:	2200      	movs	r2, #0
 8000b5e:	609a      	str	r2, [r3, #8]
  GPIO_InitStruct.Speed = GPIO_SPEED_FREQ_LOW;
 8000b60:	187b      	adds	r3, r7, r1
 8000b62:	2200      	movs	r2, #0
 8000b64:	60da      	str	r2, [r3, #12]
  HAL_GPIO_Init(GPIOC, &GPIO_InitStruct);
 8000b66:	187b      	adds	r3, r7, r1
 8000b68:	4a09      	ldr	r2, [pc, #36]	; (8000b90 <MX_GPIO_Init+0xe0>)
 8000b6a:	0019      	movs	r1, r3
 8000b6c:	0010      	movs	r0, r2
 8000b6e:	f000 fae5 	bl	800113c <HAL_GPIO_Init>

  /* EXTI interrupt init*/
  HAL_NVIC_SetPriority(EXTI0_1_IRQn, 0, 0);
 8000b72:	2200      	movs	r2, #0
 8000b74:	2100      	movs	r1, #0
 8000b76:	2005      	movs	r0, #5
 8000b78:	f000 fa5c 	bl	8001034 <HAL_NVIC_SetPriority>
  HAL_NVIC_EnableIRQ(EXTI0_1_IRQn);
 8000b7c:	2005      	movs	r0, #5
 8000b7e:	f000 fa6e 	bl	800105e <HAL_NVIC_EnableIRQ>

}
 8000b82:	46c0      	nop			; (mov r8, r8)
 8000b84:	46bd      	mov	sp, r7
 8000b86:	b009      	add	sp, #36	; 0x24
 8000b88:	bd90      	pop	{r4, r7, pc}
 8000b8a:	46c0      	nop			; (mov r8, r8)
 8000b8c:	40021000 	.word	0x40021000
 8000b90:	48000800 	.word	0x48000800

08000b94 <Error_Handler>:
/**
  * @brief  This function is executed in case of error occurrence.
  * @retval None
  */
void Error_Handler(void)
{
 8000b94:	b580      	push	{r7, lr}
 8000b96:	af00      	add	r7, sp, #0
  \details Disables IRQ interrupts by setting the I-bit in the CPSR.
           Can only be executed in Privileged modes.
 */
__STATIC_FORCEINLINE void __disable_irq(void)
{
  __ASM volatile ("cpsid i" : : : "memory");
 8000b98:	b672      	cpsid	i
}
 8000b9a:	46c0      	nop			; (mov r8, r8)
  /* USER CODE BEGIN Error_Handler_Debug */
  /* User can add his own implementation to report the HAL error return state */
  __disable_irq();
  while (1)
 8000b9c:	e7fe      	b.n	8000b9c <Error_Handler+0x8>
	...

08000ba0 <HAL_MspInit>:
 8000ba0:	b580      	push	{r7, lr}
 8000ba2:	b082      	sub	sp, #8
 8000ba4:	af00      	add	r7, sp, #0
 8000ba6:	4b0f      	ldr	r3, [pc, #60]	; (8000be4 <HAL_MspInit+0x44>)
 8000ba8:	699a      	ldr	r2, [r3, #24]
 8000baa:	4b0e      	ldr	r3, [pc, #56]	; (8000be4 <HAL_MspInit+0x44>)
 8000bac:	2101      	movs	r1, #1
 8000bae:	430a      	orrs	r2, r1
 8000bb0:	619a      	str	r2, [r3, #24]
 8000bb2:	4b0c      	ldr	r3, [pc, #48]	; (8000be4 <HAL_MspInit+0x44>)
 8000bb4:	699b      	ldr	r3, [r3, #24]
 8000bb6:	2201      	movs	r2, #1
 8000bb8:	4013      	ands	r3, r2
 8000bba:	607b      	str	r3, [r7, #4]
 8000bbc:	687b      	ldr	r3, [r7, #4]
 8000bbe:	4b09      	ldr	r3, [pc, #36]	; (8000be4 <HAL_MspInit+0x44>)
 8000bc0:	69da      	ldr	r2, [r3, #28]
 8000bc2:	4b08      	ldr	r3, [pc, #32]	; (8000be4 <HAL_MspInit+0x44>)
 8000bc4:	2180      	movs	r1, #128	; 0x80
 8000bc6:	0549      	lsls	r1, r1, #21
 8000bc8:	430a      	orrs	r2, r1
 8000bca:	61da      	str	r2, [r3, #28]
 8000bcc:	4b05      	ldr	r3, [pc, #20]	; (8000be4 <HAL_MspInit+0x44>)
 8000bce:	69da      	ldr	r2, [r3, #28]
 8000bd0:	2380      	movs	r3, #128	; 0x80
 8000bd2:	055b      	lsls	r3, r3, #21
 8000bd4:	4013      	ands	r3, r2
 8000bd6:	603b      	str	r3, [r7, #0]
 8000bd8:	683b      	ldr	r3, [r7, #0]
 8000bda:	46c0      	nop			; (mov r8, r8)
 8000bdc:	46bd      	mov	sp, r7
 8000bde:	b002      	add	sp, #8
 8000be0:	bd80      	pop	{r7, pc}
 8000be2:	46c0      	nop			; (mov r8, r8)
 8000be4:	40021000 	.word	0x40021000

08000be8 <HAL_I2C_MspInit>:
 8000be8:	b590      	push	{r4, r7, lr}
 8000bea:	b08b      	sub	sp, #44	; 0x2c
 8000bec:	af00      	add	r7, sp, #0
 8000bee:	6078      	str	r0, [r7, #4]
 8000bf0:	2414      	movs	r4, #20
 8000bf2:	193b      	adds	r3, r7, r4
 8000bf4:	0018      	movs	r0, r3
 8000bf6:	2314      	movs	r3, #20
 8000bf8:	001a      	movs	r2, r3
 8000bfa:	2100      	movs	r1, #0
 8000bfc:	f003 f95a 	bl	8003eb4 <memset>
 8000c00:	687b      	ldr	r3, [r7, #4]
 8000c02:	681b      	ldr	r3, [r3, #0]
 8000c04:	4a20      	ldr	r2, [pc, #128]	; (8000c88 <HAL_I2C_MspInit+0xa0>)
 8000c06:	4293      	cmp	r3, r2
 8000c08:	d139      	bne.n	8000c7e <HAL_I2C_MspInit+0x96>
 8000c0a:	4b20      	ldr	r3, [pc, #128]	; (8000c8c <HAL_I2C_MspInit+0xa4>)
 8000c0c:	695a      	ldr	r2, [r3, #20]
 8000c0e:	4b1f      	ldr	r3, [pc, #124]	; (8000c8c <HAL_I2C_MspInit+0xa4>)
 8000c10:	2180      	movs	r1, #128	; 0x80
 8000c12:	02c9      	lsls	r1, r1, #11
 8000c14:	430a      	orrs	r2, r1
 8000c16:	615a      	str	r2, [r3, #20]
 8000c18:	4b1c      	ldr	r3, [pc, #112]	; (8000c8c <HAL_I2C_MspInit+0xa4>)
 8000c1a:	695a      	ldr	r2, [r3, #20]
 8000c1c:	2380      	movs	r3, #128	; 0x80
 8000c1e:	02db      	lsls	r3, r3, #11
 8000c20:	4013      	ands	r3, r2
 8000c22:	613b      	str	r3, [r7, #16]
 8000c24:	693b      	ldr	r3, [r7, #16]
 8000c26:	0021      	movs	r1, r4
 8000c28:	187b      	adds	r3, r7, r1
 8000c2a:	22c0      	movs	r2, #192	; 0xc0
 8000c2c:	601a      	str	r2, [r3, #0]
 8000c2e:	187b      	adds	r3, r7, r1
 8000c30:	2212      	movs	r2, #18
 8000c32:	605a      	str	r2, [r3, #4]
 8000c34:	187b      	adds	r3, r7, r1
 8000c36:	2200      	movs	r2, #0
 8000c38:	609a      	str	r2, [r3, #8]
 8000c3a:	187b      	adds	r3, r7, r1
 8000c3c:	2203      	movs	r2, #3
 8000c3e:	60da      	str	r2, [r3, #12]
 8000c40:	187b      	adds	r3, r7, r1
 8000c42:	2201      	movs	r2, #1
 8000c44:	611a      	str	r2, [r3, #16]
 8000c46:	187b      	adds	r3, r7, r1
 8000c48:	4a11      	ldr	r2, [pc, #68]	; (8000c90 <HAL_I2C_MspInit+0xa8>)
 8000c4a:	0019      	movs	r1, r3
 8000c4c:	0010      	movs	r0, r2
 8000c4e:	f000 fa75 	bl	800113c <HAL_GPIO_Init>
 8000c52:	4b0e      	ldr	r3, [pc, #56]	; (8000c8c <HAL_I2C_MspInit+0xa4>)
 8000c54:	69da      	ldr	r2, [r3, #28]
 8000c56:	4b0d      	ldr	r3, [pc, #52]	; (8000c8c <HAL_I2C_MspInit+0xa4>)
 8000c58:	2180      	movs	r1, #128	; 0x80
 8000c5a:	0389      	lsls	r1, r1, #14
 8000c5c:	430a      	orrs	r2, r1
 8000c5e:	61da      	str	r2, [r3, #28]
 8000c60:	4b0a      	ldr	r3, [pc, #40]	; (8000c8c <HAL_I2C_MspInit+0xa4>)
 8000c62:	69da      	ldr	r2, [r3, #28]
 8000c64:	2380      	movs	r3, #128	; 0x80
 8000c66:	039b      	lsls	r3, r3, #14
 8000c68:	4013      	ands	r3, r2
 8000c6a:	60fb      	str	r3, [r7, #12]
 8000c6c:	68fb      	ldr	r3, [r7, #12]
 8000c6e:	2200      	movs	r2, #0
 8000c70:	2100      	movs	r1, #0
 8000c72:	2017      	movs	r0, #23
 8000c74:	f000 f9de 	bl	8001034 <HAL_NVIC_SetPriority>
 8000c78:	2017      	movs	r0, #23
 8000c7a:	f000 f9f0 	bl	800105e <HAL_NVIC_EnableIRQ>
 8000c7e:	46c0      	nop			; (mov r8, r8)
 8000c80:	46bd      	mov	sp, r7
 8000c82:	b00b      	add	sp, #44	; 0x2c
 8000c84:	bd90      	pop	{r4, r7, pc}
 8000c86:	46c0      	nop			; (mov r8, r8)
 8000c88:	40005400 	.word	0x40005400
 8000c8c:	40021000 	.word	0x40021000
 8000c90:	48000400 	.word	0x48000400

08000c94 <HAL_TIM_Base_MspInit>:
 8000c94:	b580      	push	{r7, lr}
 8000c96:	b084      	sub	sp, #16
 8000c98:	af00      	add	r7, sp, #0
 8000c9a:	6078      	str	r0, [r7, #4]
 8000c9c:	687b      	ldr	r3, [r7, #4]
 8000c9e:	681b      	ldr	r3, [r3, #0]
 8000ca0:	4a0e      	ldr	r2, [pc, #56]	; (8000cdc <HAL_TIM_Base_MspInit+0x48>)
 8000ca2:	4293      	cmp	r3, r2
 8000ca4:	d115      	bne.n	8000cd2 <HAL_TIM_Base_MspInit+0x3e>
 8000ca6:	4b0e      	ldr	r3, [pc, #56]	; (8000ce0 <HAL_TIM_Base_MspInit+0x4c>)
 8000ca8:	699a      	ldr	r2, [r3, #24]
 8000caa:	4b0d      	ldr	r3, [pc, #52]	; (8000ce0 <HAL_TIM_Base_MspInit+0x4c>)
 8000cac:	2180      	movs	r1, #128	; 0x80
 8000cae:	0109      	lsls	r1, r1, #4
 8000cb0:	430a      	orrs	r2, r1
 8000cb2:	619a      	str	r2, [r3, #24]
 8000cb4:	4b0a      	ldr	r3, [pc, #40]	; (8000ce0 <HAL_TIM_Base_MspInit+0x4c>)
 8000cb6:	699a      	ldr	r2, [r3, #24]
 8000cb8:	2380      	movs	r3, #128	; 0x80
 8000cba:	011b      	lsls	r3, r3, #4
 8000cbc:	4013      	ands	r3, r2
 8000cbe:	60fb      	str	r3, [r7, #12]
 8000cc0:	68fb      	ldr	r3, [r7, #12]
 8000cc2:	2200      	movs	r2, #0
 8000cc4:	2100      	movs	r1, #0
 8000cc6:	200d      	movs	r0, #13
 8000cc8:	f000 f9b4 	bl	8001034 <HAL_NVIC_SetPriority>
 8000ccc:	200d      	movs	r0, #13
 8000cce:	f000 f9c6 	bl	800105e <HAL_NVIC_EnableIRQ>
 8000cd2:	46c0      	nop			; (mov r8, r8)
 8000cd4:	46bd      	mov	sp, r7
 8000cd6:	b004      	add	sp, #16
 8000cd8:	bd80      	pop	{r7, pc}
 8000cda:	46c0      	nop			; (mov r8, r8)
 8000cdc:	40012c00 	.word	0x40012c00
 8000ce0:	40021000 	.word	0x40021000

08000ce4 <NMI_Handler>:
/******************************************************************************/
/**
  * @brief This function handles Non maskable interrupt.
  */
void NMI_Handler(void)
{
 8000ce4:	b580      	push	{r7, lr}
 8000ce6:	af00      	add	r7, sp, #0
  /* USER CODE BEGIN NonMaskableInt_IRQn 0 */

  /* USER CODE END NonMaskableInt_IRQn 0 */
  /* USER CODE BEGIN NonMaskableInt_IRQn 1 */
  while (1)
 8000ce8:	e7fe      	b.n	8000ce8 <NMI_Handler+0x4>

08000cea <HardFault_Handler>:

/**
  * @brief This function handles Hard fault interrupt.
  */
void HardFault_Handler(void)
{
 8000cea:	b580      	push	{r7, lr}
 8000cec:	af00      	add	r7, sp, #0
  /* USER CODE BEGIN HardFault_IRQn 0 */

  /* USER CODE END HardFault_IRQn 0 */
  while (1)
 8000cee:	e7fe      	b.n	8000cee <HardFault_Handler+0x4>

08000cf0 <SVC_Handler>:

/**
  * @brief This function handles System service call via SWI instruction.
  */
void SVC_Handler(void)
{
 8000cf0:	b580      	push	{r7, lr}
 8000cf2:	af00      	add	r7, sp, #0

  /* USER CODE END SVC_IRQn 0 */
  /* USER CODE BEGIN SVC_IRQn 1 */

  /* USER CODE END SVC_IRQn 1 */
}
 8000cf4:	46c0      	nop			; (mov r8, r8)
 8000cf6:	46bd      	mov	sp, r7
 8000cf8:	bd80      	pop	{r7, pc}

08000cfa <PendSV_Handler>:

/**
  * @brief This function handles Pendable request for system service.
  */
void PendSV_Handler(void)
{
 8000cfa:	b580      	push	{r7, lr}
 8000cfc:	af00      	add	r7, sp, #0

  /* USER CODE END PendSV_IRQn 0 */
  /* USER CODE BEGIN PendSV_IRQn 1 */

  /* USER CODE END PendSV_IRQn 1 */
}
 8000cfe:	46c0      	nop			; (mov r8, r8)
 8000d00:	46bd      	mov	sp, r7
 8000d02:	bd80      	pop	{r7, pc}

08000d04 <SysTick_Handler>:

/**
  * @brief This function handles System tick timer.
  */
void SysTick_Handler(void)
{
 8000d04:	b580      	push	{r7, lr}
 8000d06:	af00      	add	r7, sp, #0
  /* USER CODE BEGIN SysTick_IRQn 0 */

  /* USER CODE END SysTick_IRQn 0 */
  HAL_IncTick();
 8000d08:	f000 f8a8 	bl	8000e5c <HAL_IncTick>
  /* USER CODE BEGIN SysTick_IRQn 1 */

  /* USER CODE END SysTick_IRQn 1 */
}
 8000d0c:	46c0      	nop			; (mov r8, r8)
 8000d0e:	46bd      	mov	sp, r7
 8000d10:	bd80      	pop	{r7, pc}

08000d12 <EXTI0_1_IRQHandler>:

/**
  * @brief This function handles EXTI line 0 and 1 interrupts.
  */
void EXTI0_1_IRQHandler(void)
{
 8000d12:	b580      	push	{r7, lr}
 8000d14:	af00      	add	r7, sp, #0
  /* USER CODE BEGIN EXTI0_1_IRQn 0 */

  /* USER CODE END EXTI0_1_IRQn 0 */
  HAL_GPIO_EXTI_IRQHandler(B1_Pin);
 8000d16:	2001      	movs	r0, #1
 8000d18:	f000 fbb8 	bl	800148c <HAL_GPIO_EXTI_IRQHandler>
  /* USER CODE BEGIN EXTI0_1_IRQn 1 */

  /* USER CODE END EXTI0_1_IRQn 1 */
}
 8000d1c:	46c0      	nop			; (mov r8, r8)
 8000d1e:	46bd      	mov	sp, r7
 8000d20:	bd80      	pop	{r7, pc}
	...

08000d24 <TIM1_BRK_UP_TRG_COM_IRQHandler>:

/**
  * @brief This function handles TIM1 break, update, trigger and commutation interrupts.
  */
void TIM1_BRK_UP_TRG_COM_IRQHandler(void)
{
 8000d24:	b580      	push	{r7, lr}
 8000d26:	af00      	add	r7, sp, #0
  /* USER CODE BEGIN TIM1_BRK_UP_TRG_COM_IRQn 0 */

  /* USER CODE END TIM1_BRK_UP_TRG_COM_IRQn 0 */
  HAL_TIM_IRQHandler(&htim1);
 8000d28:	4b03      	ldr	r3, [pc, #12]	; (8000d38 <TIM1_BRK_UP_TRG_COM_IRQHandler+0x14>)
 8000d2a:	0018      	movs	r0, r3
 8000d2c:	f002 fd04 	bl	8003738 <HAL_TIM_IRQHandler>
  /* USER CODE BEGIN TIM1_BRK_UP_TRG_COM_IRQn 1 */

  /* USER CODE END TIM1_BRK_UP_TRG_COM_IRQn 1 */
}
 8000d30:	46c0      	nop			; (mov r8, r8)
 8000d32:	46bd      	mov	sp, r7
 8000d34:	bd80      	pop	{r7, pc}
 8000d36:	46c0      	nop			; (mov r8, r8)
 8000d38:	20000084 	.word	0x20000084

08000d3c <I2C1_IRQHandler>:

/**
  * @brief This function handles I2C1 event global interrupt / I2C1 wake-up interrupt through EXTI line 23.
  */
void I2C1_IRQHandler(void)
{
 8000d3c:	b580      	push	{r7, lr}
 8000d3e:	af00      	add	r7, sp, #0
  /* USER CODE BEGIN I2C1_IRQn 0 */

  /* USER CODE END I2C1_IRQn 0 */
  if (hi2c1.Instance->ISR & (I2C_FLAG_BERR | I2C_FLAG_ARLO | I2C_FLAG_OVR)) {
 8000d40:	4b09      	ldr	r3, [pc, #36]	; (8000d68 <I2C1_IRQHandler+0x2c>)
 8000d42:	681b      	ldr	r3, [r3, #0]
 8000d44:	699a      	ldr	r2, [r3, #24]
 8000d46:	23e0      	movs	r3, #224	; 0xe0
 8000d48:	00db      	lsls	r3, r3, #3
 8000d4a:	4013      	ands	r3, r2
 8000d4c:	d004      	beq.n	8000d58 <I2C1_IRQHandler+0x1c>
    HAL_I2C_ER_IRQHandler(&hi2c1);
 8000d4e:	4b06      	ldr	r3, [pc, #24]	; (8000d68 <I2C1_IRQHandler+0x2c>)
 8000d50:	0018      	movs	r0, r3
 8000d52:	f000 fec9 	bl	8001ae8 <HAL_I2C_ER_IRQHandler>
    HAL_I2C_EV_IRQHandler(&hi2c1);
  }
  /* USER CODE BEGIN I2C1_IRQn 1 */

  /* USER CODE END I2C1_IRQn 1 */
}
 8000d56:	e003      	b.n	8000d60 <I2C1_IRQHandler+0x24>
    HAL_I2C_EV_IRQHandler(&hi2c1);
 8000d58:	4b03      	ldr	r3, [pc, #12]	; (8000d68 <I2C1_IRQHandler+0x2c>)
 8000d5a:	0018      	movs	r0, r3
 8000d5c:	f000 feaa 	bl	8001ab4 <HAL_I2C_EV_IRQHandler>
}
 8000d60:	46c0      	nop			; (mov r8, r8)
 8000d62:	46bd      	mov	sp, r7
 8000d64:	bd80      	pop	{r7, pc}
 8000d66:	46c0      	nop			; (mov r8, r8)
 8000d68:	20000038 	.word	0x20000038

08000d6c <SystemInit>:
 8000d6c:	b580      	push	{r7, lr}
 8000d6e:	af00      	add	r7, sp, #0
 8000d70:	46c0      	nop			; (mov r8, r8)
 8000d72:	46bd      	mov	sp, r7
 8000d74:	bd80      	pop	{r7, pc}
	...

08000d78 <Reset_Handler>:
 8000d78:	480d      	ldr	r0, [pc, #52]	; (8000db0 <LoopForever+0x2>)
 8000d7a:	4685      	mov	sp, r0
 8000d7c:	480d      	ldr	r0, [pc, #52]	; (8000db4 <LoopForever+0x6>)
 8000d7e:	490e      	ldr	r1, [pc, #56]	; (8000db8 <LoopForever+0xa>)
 8000d80:	4a0e      	ldr	r2, [pc, #56]	; (8000dbc <LoopForever+0xe>)
 8000d82:	2300      	movs	r3, #0
 8000d84:	e002      	b.n	8000d8c <LoopCopyDataInit>

08000d86 <CopyDataInit>:
 8000d86:	58d4      	ldr	r4, [r2, r3]
 8000d88:	50c4      	str	r4, [r0, r3]
 8000d8a:	3304      	adds	r3, #4

08000d8c <LoopCopyDataInit>:
 8000d8c:	18c4      	adds	r4, r0, r3
 8000d8e:	428c      	cmp	r4, r1
 8000d90:	d3f9      	bcc.n	8000d86 <CopyDataInit>
 8000d92:	4a0b      	ldr	r2, [pc, #44]	; (8000dc0 <LoopForever+0x12>)
 8000d94:	4c0b      	ldr	r4, [pc, #44]	; (8000dc4 <LoopForever+0x16>)
 8000d96:	2300      	movs	r3, #0
 8000d98:	e001      	b.n	8000d9e <LoopFillZerobss>

08000d9a <FillZerobss>:
 8000d9a:	6013      	str	r3, [r2, #0]
 8000d9c:	3204      	adds	r2, #4

08000d9e <LoopFillZerobss>:
 8000d9e:	42a2      	cmp	r2, r4
 8000da0:	d3fb      	bcc.n	8000d9a <FillZerobss>
 8000da2:	f7ff ffe3 	bl	8000d6c <SystemInit>
 8000da6:	f003 f861 	bl	8003e6c <__libc_init_array>
 8000daa:	f7ff fd41 	bl	8000830 <main>

08000dae <LoopForever>:
 8000dae:	e7fe      	b.n	8000dae <LoopForever>
 8000db0:	20002000 	.word	0x20002000
 8000db4:	20000000 	.word	0x20000000
 8000db8:	2000001c 	.word	0x2000001c
 8000dbc:	08003f54 	.word	0x08003f54
 8000dc0:	2000001c 	.word	0x2000001c
 8000dc4:	200000d0 	.word	0x200000d0

08000dc8 <ADC1_COMP_IRQHandler>:
 8000dc8:	e7fe      	b.n	8000dc8 <ADC1_COMP_IRQHandler>
	...

08000dcc <HAL_Init>:
 8000dcc:	b580      	push	{r7, lr}
 8000dce:	af00      	add	r7, sp, #0
 8000dd0:	4b07      	ldr	r3, [pc, #28]	; (8000df0 <HAL_Init+0x24>)
 8000dd2:	681a      	ldr	r2, [r3, #0]
 8000dd4:	4b06      	ldr	r3, [pc, #24]	; (8000df0 <HAL_Init+0x24>)
 8000dd6:	2110      	movs	r1, #16
 8000dd8:	430a      	orrs	r2, r1
 8000dda:	601a      	str	r2, [r3, #0]
 8000ddc:	2000      	movs	r0, #0
 8000dde:	f000 f809 	bl	8000df4 <HAL_InitTick>
 8000de2:	f7ff fedd 	bl	8000ba0 <HAL_MspInit>
 8000de6:	2300      	movs	r3, #0
 8000de8:	0018      	movs	r0, r3
 8000dea:	46bd      	mov	sp, r7
 8000dec:	bd80      	pop	{r7, pc}
 8000dee:	46c0      	nop			; (mov r8, r8)
 8000df0:	40022000 	.word	0x40022000

08000df4 <HAL_InitTick>:
 8000df4:	b590      	push	{r4, r7, lr}
 8000df6:	b083      	sub	sp, #12
 8000df8:	af00      	add	r7, sp, #0
 8000dfa:	6078      	str	r0, [r7, #4]
 8000dfc:	4b14      	ldr	r3, [pc, #80]	; (8000e50 <HAL_InitTick+0x5c>)
 8000dfe:	681c      	ldr	r4, [r3, #0]
 8000e00:	4b14      	ldr	r3, [pc, #80]	; (8000e54 <HAL_InitTick+0x60>)
 8000e02:	781b      	ldrb	r3, [r3, #0]
 8000e04:	0019      	movs	r1, r3
 8000e06:	23fa      	movs	r3, #250	; 0xfa
 8000e08:	0098      	lsls	r0, r3, #2
 8000e0a:	f7ff f97d 	bl	8000108 <__udivsi3>
 8000e0e:	0003      	movs	r3, r0
 8000e10:	0019      	movs	r1, r3
 8000e12:	0020      	movs	r0, r4
 8000e14:	f7ff f978 	bl	8000108 <__udivsi3>
 8000e18:	0003      	movs	r3, r0
 8000e1a:	0018      	movs	r0, r3
 8000e1c:	f000 f92f 	bl	800107e <HAL_SYSTICK_Config>
 8000e20:	1e03      	subs	r3, r0, #0
 8000e22:	d001      	beq.n	8000e28 <HAL_InitTick+0x34>
 8000e24:	2301      	movs	r3, #1
 8000e26:	e00f      	b.n	8000e48 <HAL_InitTick+0x54>
 8000e28:	687b      	ldr	r3, [r7, #4]
 8000e2a:	2b03      	cmp	r3, #3
 8000e2c:	d80b      	bhi.n	8000e46 <HAL_InitTick+0x52>
 8000e2e:	6879      	ldr	r1, [r7, #4]
 8000e30:	2301      	movs	r3, #1
 8000e32:	425b      	negs	r3, r3
 8000e34:	2200      	movs	r2, #0
 8000e36:	0018      	movs	r0, r3
 8000e38:	f000 f8fc 	bl	8001034 <HAL_NVIC_SetPriority>
 8000e3c:	4b06      	ldr	r3, [pc, #24]	; (8000e58 <HAL_InitTick+0x64>)
 8000e3e:	687a      	ldr	r2, [r7, #4]
 8000e40:	601a      	str	r2, [r3, #0]
 8000e42:	2300      	movs	r3, #0
 8000e44:	e000      	b.n	8000e48 <HAL_InitTick+0x54>
 8000e46:	2301      	movs	r3, #1
 8000e48:	0018      	movs	r0, r3
 8000e4a:	46bd      	mov	sp, r7
 8000e4c:	b003      	add	sp, #12
 8000e4e:	bd90      	pop	{r4, r7, pc}
 8000e50:	20000010 	.word	0x20000010
 8000e54:	20000018 	.word	0x20000018
 8000e58:	20000014 	.word	0x20000014

08000e5c <HAL_IncTick>:
 8000e5c:	b580      	push	{r7, lr}
 8000e5e:	af00      	add	r7, sp, #0
 8000e60:	4b05      	ldr	r3, [pc, #20]	; (8000e78 <HAL_IncTick+0x1c>)
 8000e62:	781b      	ldrb	r3, [r3, #0]
 8000e64:	001a      	movs	r2, r3
 8000e66:	4b05      	ldr	r3, [pc, #20]	; (8000e7c <HAL_IncTick+0x20>)
 8000e68:	681b      	ldr	r3, [r3, #0]
 8000e6a:	18d2      	adds	r2, r2, r3
 8000e6c:	4b03      	ldr	r3, [pc, #12]	; (8000e7c <HAL_IncTick+0x20>)
 8000e6e:	601a      	str	r2, [r3, #0]
 8000e70:	46c0      	nop			; (mov r8, r8)
 8000e72:	46bd      	mov	sp, r7
 8000e74:	bd80      	pop	{r7, pc}
 8000e76:	46c0      	nop			; (mov r8, r8)
 8000e78:	20000018 	.word	0x20000018
 8000e7c:	200000cc 	.word	0x200000cc

08000e80 <HAL_GetTick>:
 8000e80:	b580      	push	{r7, lr}
 8000e82:	af00      	add	r7, sp, #0
 8000e84:	4b02      	ldr	r3, [pc, #8]	; (8000e90 <HAL_GetTick+0x10>)
 8000e86:	681b      	ldr	r3, [r3, #0]
 8000e88:	0018      	movs	r0, r3
 8000e8a:	46bd      	mov	sp, r7
 8000e8c:	bd80      	pop	{r7, pc}
 8000e8e:	46c0      	nop			; (mov r8, r8)
 8000e90:	200000cc 	.word	0x200000cc

08000e94 <HAL_Delay>:
 8000e94:	b580      	push	{r7, lr}
 8000e96:	b084      	sub	sp, #16
 8000e98:	af00      	add	r7, sp, #0
 8000e9a:	6078      	str	r0, [r7, #4]
 8000e9c:	f7ff fff0 	bl	8000e80 <HAL_GetTick>
 8000ea0:	0003      	movs	r3, r0
 8000ea2:	60bb      	str	r3, [r7, #8]
 8000ea4:	687b      	ldr	r3, [r7, #4]
 8000ea6:	60fb      	str	r3, [r7, #12]
 8000ea8:	68fb      	ldr	r3, [r7, #12]
 8000eaa:	3301      	adds	r3, #1
 8000eac:	d005      	beq.n	8000eba <HAL_Delay+0x26>
 8000eae:	4b0a      	ldr	r3, [pc, #40]	; (8000ed8 <HAL_Delay+0x44>)
 8000eb0:	781b      	ldrb	r3, [r3, #0]
 8000eb2:	001a      	movs	r2, r3
 8000eb4:	68fb      	ldr	r3, [r7, #12]
 8000eb6:	189b      	adds	r3, r3, r2
 8000eb8:	60fb      	str	r3, [r7, #12]
 8000eba:	46c0      	nop			; (mov r8, r8)
 8000ebc:	f7ff ffe0 	bl	8000e80 <HAL_GetTick>
 8000ec0:	0002      	movs	r2, r0
 8000ec2:	68bb      	ldr	r3, [r7, #8]
 8000ec4:	1ad3      	subs	r3, r2, r3
 8000ec6:	68fa      	ldr	r2, [r7, #12]
 8000ec8:	429a      	cmp	r2, r3
 8000eca:	d8f7      	bhi.n	8000ebc <HAL_Delay+0x28>
 8000ecc:	46c0      	nop			; (mov r8, r8)
 8000ece:	46c0      	nop			; (mov r8, r8)
 8000ed0:	46bd      	mov	sp, r7
 8000ed2:	b004      	add	sp, #16
 8000ed4:	bd80      	pop	{r7, pc}
 8000ed6:	46c0      	nop			; (mov r8, r8)
 8000ed8:	20000018 	.word	0x20000018

08000edc <__NVIC_EnableIRQ>:
 8000edc:	b580      	push	{r7, lr}
 8000ede:	b082      	sub	sp, #8
 8000ee0:	af00      	add	r7, sp, #0
 8000ee2:	0002      	movs	r2, r0
 8000ee4:	1dfb      	adds	r3, r7, #7
 8000ee6:	701a      	strb	r2, [r3, #0]
 8000ee8:	1dfb      	adds	r3, r7, #7
 8000eea:	781b      	ldrb	r3, [r3, #0]
 8000eec:	2b7f      	cmp	r3, #127	; 0x7f
 8000eee:	d809      	bhi.n	8000f04 <__NVIC_EnableIRQ+0x28>
 8000ef0:	1dfb      	adds	r3, r7, #7
 8000ef2:	781b      	ldrb	r3, [r3, #0]
 8000ef4:	001a      	movs	r2, r3
 8000ef6:	231f      	movs	r3, #31
 8000ef8:	401a      	ands	r2, r3
 8000efa:	4b04      	ldr	r3, [pc, #16]	; (8000f0c <__NVIC_EnableIRQ+0x30>)
 8000efc:	2101      	movs	r1, #1
 8000efe:	4091      	lsls	r1, r2
 8000f00:	000a      	movs	r2, r1
 8000f02:	601a      	str	r2, [r3, #0]
 8000f04:	46c0      	nop			; (mov r8, r8)
 8000f06:	46bd      	mov	sp, r7
 8000f08:	b002      	add	sp, #8
 8000f0a:	bd80      	pop	{r7, pc}
 8000f0c:	e000e100 	.word	0xe000e100

08000f10 <__NVIC_SetPriority>:
 8000f10:	b590      	push	{r4, r7, lr}
 8000f12:	b083      	sub	sp, #12
 8000f14:	af00      	add	r7, sp, #0
 8000f16:	0002      	movs	r2, r0
 8000f18:	6039      	str	r1, [r7, #0]
 8000f1a:	1dfb      	adds	r3, r7, #7
 8000f1c:	701a      	strb	r2, [r3, #0]
 8000f1e:	1dfb      	adds	r3, r7, #7
 8000f20:	781b      	ldrb	r3, [r3, #0]
 8000f22:	2b7f      	cmp	r3, #127	; 0x7f
 8000f24:	d828      	bhi.n	8000f78 <__NVIC_SetPriority+0x68>
 8000f26:	4a2f      	ldr	r2, [pc, #188]	; (8000fe4 <__NVIC_SetPriority+0xd4>)
 8000f28:	1dfb      	adds	r3, r7, #7
 8000f2a:	781b      	ldrb	r3, [r3, #0]
 8000f2c:	b25b      	sxtb	r3, r3
 8000f2e:	089b      	lsrs	r3, r3, #2
 8000f30:	33c0      	adds	r3, #192	; 0xc0
 8000f32:	009b      	lsls	r3, r3, #2
 8000f34:	589b      	ldr	r3, [r3, r2]
 8000f36:	1dfa      	adds	r2, r7, #7
 8000f38:	7812      	ldrb	r2, [r2, #0]
 8000f3a:	0011      	movs	r1, r2
 8000f3c:	2203      	movs	r2, #3
 8000f3e:	400a      	ands	r2, r1
 8000f40:	00d2      	lsls	r2, r2, #3
 8000f42:	21ff      	movs	r1, #255	; 0xff
 8000f44:	4091      	lsls	r1, r2
 8000f46:	000a      	movs	r2, r1
 8000f48:	43d2      	mvns	r2, r2
 8000f4a:	401a      	ands	r2, r3
 8000f4c:	0011      	movs	r1, r2
 8000f4e:	683b      	ldr	r3, [r7, #0]
 8000f50:	019b      	lsls	r3, r3, #6
 8000f52:	22ff      	movs	r2, #255	; 0xff
 8000f54:	401a      	ands	r2, r3
 8000f56:	1dfb      	adds	r3, r7, #7
 8000f58:	781b      	ldrb	r3, [r3, #0]
 8000f5a:	0018      	movs	r0, r3
 8000f5c:	2303      	movs	r3, #3
 8000f5e:	4003      	ands	r3, r0
 8000f60:	00db      	lsls	r3, r3, #3
 8000f62:	409a      	lsls	r2, r3
 8000f64:	481f      	ldr	r0, [pc, #124]	; (8000fe4 <__NVIC_SetPriority+0xd4>)
 8000f66:	1dfb      	adds	r3, r7, #7
 8000f68:	781b      	ldrb	r3, [r3, #0]
 8000f6a:	b25b      	sxtb	r3, r3
 8000f6c:	089b      	lsrs	r3, r3, #2
 8000f6e:	430a      	orrs	r2, r1
 8000f70:	33c0      	adds	r3, #192	; 0xc0
 8000f72:	009b      	lsls	r3, r3, #2
 8000f74:	501a      	str	r2, [r3, r0]
 8000f76:	e031      	b.n	8000fdc <__NVIC_SetPriority+0xcc>
 8000f78:	4a1b      	ldr	r2, [pc, #108]	; (8000fe8 <__NVIC_SetPriority+0xd8>)
 8000f7a:	1dfb      	adds	r3, r7, #7
 8000f7c:	781b      	ldrb	r3, [r3, #0]
 8000f7e:	0019      	movs	r1, r3
 8000f80:	230f      	movs	r3, #15
 8000f82:	400b      	ands	r3, r1
 8000f84:	3b08      	subs	r3, #8
 8000f86:	089b      	lsrs	r3, r3, #2
 8000f88:	3306      	adds	r3, #6
 8000f8a:	009b      	lsls	r3, r3, #2
 8000f8c:	18d3      	adds	r3, r2, r3
 8000f8e:	3304      	adds	r3, #4
 8000f90:	681b      	ldr	r3, [r3, #0]
 8000f92:	1dfa      	adds	r2, r7, #7
 8000f94:	7812      	ldrb	r2, [r2, #0]
 8000f96:	0011      	movs	r1, r2
 8000f98:	2203      	movs	r2, #3
 8000f9a:	400a      	ands	r2, r1
 8000f9c:	00d2      	lsls	r2, r2, #3
 8000f9e:	21ff      	movs	r1, #255	; 0xff
 8000fa0:	4091      	lsls	r1, r2
 8000fa2:	000a      	movs	r2, r1
 8000fa4:	43d2      	mvns	r2, r2
 8000fa6:	401a      	ands	r2, r3
 8000fa8:	0011      	movs	r1, r2
 8000faa:	683b      	ldr	r3, [r7, #0]
 8000fac:	019b      	lsls	r3, r3, #6
 8000fae:	22ff      	movs	r2, #255	; 0xff
 8000fb0:	401a      	ands	r2, r3
 8000fb2:	1dfb      	adds	r3, r7, #7
 8000fb4:	781b      	ldrb	r3, [r3, #0]
 8000fb6:	0018      	movs	r0, r3
 8000fb8:	2303      	movs	r3, #3
 8000fba:	4003      	ands	r3, r0
 8000fbc:	00db      	lsls	r3, r3, #3
 8000fbe:	409a      	lsls	r2, r3
 8000fc0:	4809      	ldr	r0, [pc, #36]	; (8000fe8 <__NVIC_SetPriority+0xd8>)
 8000fc2:	1dfb      	adds	r3, r7, #7
 8000fc4:	781b      	ldrb	r3, [r3, #0]
 8000fc6:	001c      	movs	r4, r3
 8000fc8:	230f      	movs	r3, #15
 8000fca:	4023      	ands	r3, r4
 8000fcc:	3b08      	subs	r3, #8
 8000fce:	089b      	lsrs	r3, r3, #2
 8000fd0:	430a      	orrs	r2, r1
 8000fd2:	3306      	adds	r3, #6
 8000fd4:	009b      	lsls	r3, r3, #2
 8000fd6:	18c3      	adds	r3, r0, r3
 8000fd8:	3304      	adds	r3, #4
 8000fda:	601a      	str	r2, [r3, #0]
 8000fdc:	46c0      	nop			; (mov r8, r8)
 8000fde:	46bd      	mov	sp, r7
 8000fe0:	b003      	add	sp, #12
 8000fe2:	bd90      	pop	{r4, r7, pc}
 8000fe4:	e000e100 	.word	0xe000e100
 8000fe8:	e000ed00 	.word	0xe000ed00

08000fec <SysTick_Config>:
 8000fec:	b580      	push	{r7, lr}
 8000fee:	b082      	sub	sp, #8
 8000ff0:	af00      	add	r7, sp, #0
 8000ff2:	6078      	str	r0, [r7, #4]
 8000ff4:	687b      	ldr	r3, [r7, #4]
 8000ff6:	1e5a      	subs	r2, r3, #1
 8000ff8:	2380      	movs	r3, #128	; 0x80
 8000ffa:	045b      	lsls	r3, r3, #17
 8000ffc:	429a      	cmp	r2, r3
 8000ffe:	d301      	bcc.n	8001004 <SysTick_Config+0x18>
 8001000:	2301      	movs	r3, #1
 8001002:	e010      	b.n	8001026 <SysTick_Config+0x3a>
 8001004:	4b0a      	ldr	r3, [pc, #40]	; (8001030 <SysTick_Config+0x44>)
 8001006:	687a      	ldr	r2, [r7, #4]
 8001008:	3a01      	subs	r2, #1
 800100a:	605a      	str	r2, [r3, #4]
 800100c:	2301      	movs	r3, #1
 800100e:	425b      	negs	r3, r3
 8001010:	2103      	movs	r1, #3
 8001012:	0018      	movs	r0, r3
 8001014:	f7ff ff7c 	bl	8000f10 <__NVIC_SetPriority>
 8001018:	4b05      	ldr	r3, [pc, #20]	; (8001030 <SysTick_Config+0x44>)
 800101a:	2200      	movs	r2, #0
 800101c:	609a      	str	r2, [r3, #8]
 800101e:	4b04      	ldr	r3, [pc, #16]	; (8001030 <SysTick_Config+0x44>)
 8001020:	2207      	movs	r2, #7
 8001022:	601a      	str	r2, [r3, #0]
 8001024:	2300      	movs	r3, #0
 8001026:	0018      	movs	r0, r3
 8001028:	46bd      	mov	sp, r7
 800102a:	b002      	add	sp, #8
 800102c:	bd80      	pop	{r7, pc}
 800102e:	46c0      	nop			; (mov r8, r8)
 8001030:	e000e010 	.word	0xe000e010

08001034 <HAL_NVIC_SetPriority>:
 8001034:	b580      	push	{r7, lr}
 8001036:	b084      	sub	sp, #16
 8001038:	af00      	add	r7, sp, #0
 800103a:	60b9      	str	r1, [r7, #8]
 800103c:	607a      	str	r2, [r7, #4]
 800103e:	210f      	movs	r1, #15
 8001040:	187b      	adds	r3, r7, r1
 8001042:	1c02      	adds	r2, r0, #0
 8001044:	701a      	strb	r2, [r3, #0]
 8001046:	68ba      	ldr	r2, [r7, #8]
 8001048:	187b      	adds	r3, r7, r1
 800104a:	781b      	ldrb	r3, [r3, #0]
 800104c:	b25b      	sxtb	r3, r3
 800104e:	0011      	movs	r1, r2
 8001050:	0018      	movs	r0, r3
 8001052:	f7ff ff5d 	bl	8000f10 <__NVIC_SetPriority>
 8001056:	46c0      	nop			; (mov r8, r8)
 8001058:	46bd      	mov	sp, r7
 800105a:	b004      	add	sp, #16
 800105c:	bd80      	pop	{r7, pc}

0800105e <HAL_NVIC_EnableIRQ>:
 800105e:	b580      	push	{r7, lr}
 8001060:	b082      	sub	sp, #8
 8001062:	af00      	add	r7, sp, #0
 8001064:	0002      	movs	r2, r0
 8001066:	1dfb      	adds	r3, r7, #7
 8001068:	701a      	strb	r2, [r3, #0]
 800106a:	1dfb      	adds	r3, r7, #7
 800106c:	781b      	ldrb	r3, [r3, #0]
 800106e:	b25b      	sxtb	r3, r3
 8001070:	0018      	movs	r0, r3
 8001072:	f7ff ff33 	bl	8000edc <__NVIC_EnableIRQ>
 8001076:	46c0      	nop			; (mov r8, r8)
 8001078:	46bd      	mov	sp, r7
 800107a:	b002      	add	sp, #8
 800107c:	bd80      	pop	{r7, pc}

0800107e <HAL_SYSTICK_Config>:
 800107e:	b580      	push	{r7, lr}
 8001080:	b082      	sub	sp, #8
 8001082:	af00      	add	r7, sp, #0
 8001084:	6078      	str	r0, [r7, #4]
 8001086:	687b      	ldr	r3, [r7, #4]
 8001088:	0018      	movs	r0, r3
 800108a:	f7ff ffaf 	bl	8000fec <SysTick_Config>
 800108e:	0003      	movs	r3, r0
 8001090:	0018      	movs	r0, r3
 8001092:	46bd      	mov	sp, r7
 8001094:	b002      	add	sp, #8
 8001096:	bd80      	pop	{r7, pc}

08001098 <HAL_DMA_Abort_IT>:
 8001098:	b580      	push	{r7, lr}
 800109a:	b084      	sub	sp, #16
 800109c:	af00      	add	r7, sp, #0
 800109e:	6078      	str	r0, [r7, #4]
 80010a0:	210f      	movs	r1, #15
 80010a2:	187b      	adds	r3, r7, r1
 80010a4:	2200      	movs	r2, #0
 80010a6:	701a      	strb	r2, [r3, #0]
 80010a8:	687b      	ldr	r3, [r7, #4]
 80010aa:	2221      	movs	r2, #33	; 0x21
 80010ac:	5c9b      	ldrb	r3, [r3, r2]
 80010ae:	b2db      	uxtb	r3, r3
 80010b0:	2b02      	cmp	r3, #2
 80010b2:	d006      	beq.n	80010c2 <HAL_DMA_Abort_IT+0x2a>
 80010b4:	687b      	ldr	r3, [r7, #4]
 80010b6:	2204      	movs	r2, #4
 80010b8:	639a      	str	r2, [r3, #56]	; 0x38
 80010ba:	187b      	adds	r3, r7, r1
 80010bc:	2201      	movs	r2, #1
 80010be:	701a      	strb	r2, [r3, #0]
 80010c0:	e028      	b.n	8001114 <HAL_DMA_Abort_IT+0x7c>
 80010c2:	687b      	ldr	r3, [r7, #4]
 80010c4:	681b      	ldr	r3, [r3, #0]
 80010c6:	681a      	ldr	r2, [r3, #0]
 80010c8:	687b      	ldr	r3, [r7, #4]
 80010ca:	681b      	ldr	r3, [r3, #0]
 80010cc:	210e      	movs	r1, #14
 80010ce:	438a      	bics	r2, r1
 80010d0:	601a      	str	r2, [r3, #0]
 80010d2:	687b      	ldr	r3, [r7, #4]
 80010d4:	681b      	ldr	r3, [r3, #0]
 80010d6:	681a      	ldr	r2, [r3, #0]
 80010d8:	687b      	ldr	r3, [r7, #4]
 80010da:	681b      	ldr	r3, [r3, #0]
 80010dc:	2101      	movs	r1, #1
 80010de:	438a      	bics	r2, r1
 80010e0:	601a      	str	r2, [r3, #0]
 80010e2:	687b      	ldr	r3, [r7, #4]
 80010e4:	6c1a      	ldr	r2, [r3, #64]	; 0x40
 80010e6:	687b      	ldr	r3, [r7, #4]
 80010e8:	6bdb      	ldr	r3, [r3, #60]	; 0x3c
 80010ea:	2101      	movs	r1, #1
 80010ec:	4091      	lsls	r1, r2
 80010ee:	000a      	movs	r2, r1
 80010f0:	605a      	str	r2, [r3, #4]
 80010f2:	687b      	ldr	r3, [r7, #4]
 80010f4:	2221      	movs	r2, #33	; 0x21
 80010f6:	2101      	movs	r1, #1
 80010f8:	5499      	strb	r1, [r3, r2]
 80010fa:	687b      	ldr	r3, [r7, #4]
 80010fc:	2220      	movs	r2, #32
 80010fe:	2100      	movs	r1, #0
 8001100:	5499      	strb	r1, [r3, r2]
 8001102:	687b      	ldr	r3, [r7, #4]
 8001104:	6b5b      	ldr	r3, [r3, #52]	; 0x34
 8001106:	2b00      	cmp	r3, #0
 8001108:	d004      	beq.n	8001114 <HAL_DMA_Abort_IT+0x7c>
 800110a:	687b      	ldr	r3, [r7, #4]
 800110c:	6b5b      	ldr	r3, [r3, #52]	; 0x34
 800110e:	687a      	ldr	r2, [r7, #4]
 8001110:	0010      	movs	r0, r2
 8001112:	4798      	blx	r3
 8001114:	230f      	movs	r3, #15
 8001116:	18fb      	adds	r3, r7, r3
 8001118:	781b      	ldrb	r3, [r3, #0]
 800111a:	0018      	movs	r0, r3
 800111c:	46bd      	mov	sp, r7
 800111e:	b004      	add	sp, #16
 8001120:	bd80      	pop	{r7, pc}

08001122 <HAL_DMA_GetState>:
 8001122:	b580      	push	{r7, lr}
 8001124:	b082      	sub	sp, #8
 8001126:	af00      	add	r7, sp, #0
 8001128:	6078      	str	r0, [r7, #4]
 800112a:	687b      	ldr	r3, [r7, #4]
 800112c:	2221      	movs	r2, #33	; 0x21
 800112e:	5c9b      	ldrb	r3, [r3, r2]
 8001130:	b2db      	uxtb	r3, r3
 8001132:	0018      	movs	r0, r3
 8001134:	46bd      	mov	sp, r7
 8001136:	b002      	add	sp, #8
 8001138:	bd80      	pop	{r7, pc}
	...

0800113c <HAL_GPIO_Init>:
 800113c:	b580      	push	{r7, lr}
 800113e:	b086      	sub	sp, #24
 8001140:	af00      	add	r7, sp, #0
 8001142:	6078      	str	r0, [r7, #4]
 8001144:	6039      	str	r1, [r7, #0]
 8001146:	2300      	movs	r3, #0
 8001148:	617b      	str	r3, [r7, #20]
 800114a:	e14f      	b.n	80013ec <HAL_GPIO_Init+0x2b0>
 800114c:	683b      	ldr	r3, [r7, #0]
 800114e:	681b      	ldr	r3, [r3, #0]
 8001150:	2101      	movs	r1, #1
 8001152:	697a      	ldr	r2, [r7, #20]
 8001154:	4091      	lsls	r1, r2
 8001156:	000a      	movs	r2, r1
 8001158:	4013      	ands	r3, r2
 800115a:	60fb      	str	r3, [r7, #12]
 800115c:	68fb      	ldr	r3, [r7, #12]
 800115e:	2b00      	cmp	r3, #0
 8001160:	d100      	bne.n	8001164 <HAL_GPIO_Init+0x28>
 8001162:	e140      	b.n	80013e6 <HAL_GPIO_Init+0x2aa>
 8001164:	683b      	ldr	r3, [r7, #0]
 8001166:	685b      	ldr	r3, [r3, #4]
 8001168:	2203      	movs	r2, #3
 800116a:	4013      	ands	r3, r2
 800116c:	2b01      	cmp	r3, #1
 800116e:	d005      	beq.n	800117c <HAL_GPIO_Init+0x40>
 8001170:	683b      	ldr	r3, [r7, #0]
 8001172:	685b      	ldr	r3, [r3, #4]
 8001174:	2203      	movs	r2, #3
 8001176:	4013      	ands	r3, r2
 8001178:	2b02      	cmp	r3, #2
 800117a:	d130      	bne.n	80011de <HAL_GPIO_Init+0xa2>
 800117c:	687b      	ldr	r3, [r7, #4]
 800117e:	689b      	ldr	r3, [r3, #8]
 8001180:	613b      	str	r3, [r7, #16]
 8001182:	697b      	ldr	r3, [r7, #20]
 8001184:	005b      	lsls	r3, r3, #1
 8001186:	2203      	movs	r2, #3
 8001188:	409a      	lsls	r2, r3
 800118a:	0013      	movs	r3, r2
 800118c:	43da      	mvns	r2, r3
 800118e:	693b      	ldr	r3, [r7, #16]
 8001190:	4013      	ands	r3, r2
 8001192:	613b      	str	r3, [r7, #16]
 8001194:	683b      	ldr	r3, [r7, #0]
 8001196:	68da      	ldr	r2, [r3, #12]
 8001198:	697b      	ldr	r3, [r7, #20]
 800119a:	005b      	lsls	r3, r3, #1
 800119c:	409a      	lsls	r2, r3
 800119e:	0013      	movs	r3, r2
 80011a0:	693a      	ldr	r2, [r7, #16]
 80011a2:	4313      	orrs	r3, r2
 80011a4:	613b      	str	r3, [r7, #16]
 80011a6:	687b      	ldr	r3, [r7, #4]
 80011a8:	693a      	ldr	r2, [r7, #16]
 80011aa:	609a      	str	r2, [r3, #8]
 80011ac:	687b      	ldr	r3, [r7, #4]
 80011ae:	685b      	ldr	r3, [r3, #4]
 80011b0:	613b      	str	r3, [r7, #16]
 80011b2:	2201      	movs	r2, #1
 80011b4:	697b      	ldr	r3, [r7, #20]
 80011b6:	409a      	lsls	r2, r3
 80011b8:	0013      	movs	r3, r2
 80011ba:	43da      	mvns	r2, r3
 80011bc:	693b      	ldr	r3, [r7, #16]
 80011be:	4013      	ands	r3, r2
 80011c0:	613b      	str	r3, [r7, #16]
 80011c2:	683b      	ldr	r3, [r7, #0]
 80011c4:	685b      	ldr	r3, [r3, #4]
 80011c6:	091b      	lsrs	r3, r3, #4
 80011c8:	2201      	movs	r2, #1
 80011ca:	401a      	ands	r2, r3
 80011cc:	697b      	ldr	r3, [r7, #20]
 80011ce:	409a      	lsls	r2, r3
 80011d0:	0013      	movs	r3, r2
 80011d2:	693a      	ldr	r2, [r7, #16]
 80011d4:	4313      	orrs	r3, r2
 80011d6:	613b      	str	r3, [r7, #16]
 80011d8:	687b      	ldr	r3, [r7, #4]
 80011da:	693a      	ldr	r2, [r7, #16]
 80011dc:	605a      	str	r2, [r3, #4]
 80011de:	683b      	ldr	r3, [r7, #0]
 80011e0:	685b      	ldr	r3, [r3, #4]
 80011e2:	2203      	movs	r2, #3
 80011e4:	4013      	ands	r3, r2
 80011e6:	2b03      	cmp	r3, #3
 80011e8:	d017      	beq.n	800121a <HAL_GPIO_Init+0xde>
 80011ea:	687b      	ldr	r3, [r7, #4]
 80011ec:	68db      	ldr	r3, [r3, #12]
 80011ee:	613b      	str	r3, [r7, #16]
 80011f0:	697b      	ldr	r3, [r7, #20]
 80011f2:	005b      	lsls	r3, r3, #1
 80011f4:	2203      	movs	r2, #3
 80011f6:	409a      	lsls	r2, r3
 80011f8:	0013      	movs	r3, r2
 80011fa:	43da      	mvns	r2, r3
 80011fc:	693b      	ldr	r3, [r7, #16]
 80011fe:	4013      	ands	r3, r2
 8001200:	613b      	str	r3, [r7, #16]
 8001202:	683b      	ldr	r3, [r7, #0]
 8001204:	689a      	ldr	r2, [r3, #8]
 8001206:	697b      	ldr	r3, [r7, #20]
 8001208:	005b      	lsls	r3, r3, #1
 800120a:	409a      	lsls	r2, r3
 800120c:	0013      	movs	r3, r2
 800120e:	693a      	ldr	r2, [r7, #16]
 8001210:	4313      	orrs	r3, r2
 8001212:	613b      	str	r3, [r7, #16]
 8001214:	687b      	ldr	r3, [r7, #4]
 8001216:	693a      	ldr	r2, [r7, #16]
 8001218:	60da      	str	r2, [r3, #12]
 800121a:	683b      	ldr	r3, [r7, #0]
 800121c:	685b      	ldr	r3, [r3, #4]
 800121e:	2203      	movs	r2, #3
 8001220:	4013      	ands	r3, r2
 8001222:	2b02      	cmp	r3, #2
 8001224:	d123      	bne.n	800126e <HAL_GPIO_Init+0x132>
 8001226:	697b      	ldr	r3, [r7, #20]
 8001228:	08da      	lsrs	r2, r3, #3
 800122a:	687b      	ldr	r3, [r7, #4]
 800122c:	3208      	adds	r2, #8
 800122e:	0092      	lsls	r2, r2, #2
 8001230:	58d3      	ldr	r3, [r2, r3]
 8001232:	613b      	str	r3, [r7, #16]
 8001234:	697b      	ldr	r3, [r7, #20]
 8001236:	2207      	movs	r2, #7
 8001238:	4013      	ands	r3, r2
 800123a:	009b      	lsls	r3, r3, #2
 800123c:	220f      	movs	r2, #15
 800123e:	409a      	lsls	r2, r3
 8001240:	0013      	movs	r3, r2
 8001242:	43da      	mvns	r2, r3
 8001244:	693b      	ldr	r3, [r7, #16]
 8001246:	4013      	ands	r3, r2
 8001248:	613b      	str	r3, [r7, #16]
 800124a:	683b      	ldr	r3, [r7, #0]
 800124c:	691a      	ldr	r2, [r3, #16]
 800124e:	697b      	ldr	r3, [r7, #20]
 8001250:	2107      	movs	r1, #7
 8001252:	400b      	ands	r3, r1
 8001254:	009b      	lsls	r3, r3, #2
 8001256:	409a      	lsls	r2, r3
 8001258:	0013      	movs	r3, r2
 800125a:	693a      	ldr	r2, [r7, #16]
 800125c:	4313      	orrs	r3, r2
 800125e:	613b      	str	r3, [r7, #16]
 8001260:	697b      	ldr	r3, [r7, #20]
 8001262:	08da      	lsrs	r2, r3, #3
 8001264:	687b      	ldr	r3, [r7, #4]
 8001266:	3208      	adds	r2, #8
 8001268:	0092      	lsls	r2, r2, #2
 800126a:	6939      	ldr	r1, [r7, #16]
 800126c:	50d1      	str	r1, [r2, r3]
 800126e:	687b      	ldr	r3, [r7, #4]
 8001270:	681b      	ldr	r3, [r3, #0]
 8001272:	613b      	str	r3, [r7, #16]
 8001274:	697b      	ldr	r3, [r7, #20]
 8001276:	005b      	lsls	r3, r3, #1
 8001278:	2203      	movs	r2, #3
 800127a:	409a      	lsls	r2, r3
 800127c:	0013      	movs	r3, r2
 800127e:	43da      	mvns	r2, r3
 8001280:	693b      	ldr	r3, [r7, #16]
 8001282:	4013      	ands	r3, r2
 8001284:	613b      	str	r3, [r7, #16]
 8001286:	683b      	ldr	r3, [r7, #0]
 8001288:	685b      	ldr	r3, [r3, #4]
 800128a:	2203      	movs	r2, #3
 800128c:	401a      	ands	r2, r3
 800128e:	697b      	ldr	r3, [r7, #20]
 8001290:	005b      	lsls	r3, r3, #1
 8001292:	409a      	lsls	r2, r3
 8001294:	0013      	movs	r3, r2
 8001296:	693a      	ldr	r2, [r7, #16]
 8001298:	4313      	orrs	r3, r2
 800129a:	613b      	str	r3, [r7, #16]
 800129c:	687b      	ldr	r3, [r7, #4]
 800129e:	693a      	ldr	r2, [r7, #16]
 80012a0:	601a      	str	r2, [r3, #0]
 80012a2:	683b      	ldr	r3, [r7, #0]
 80012a4:	685a      	ldr	r2, [r3, #4]
 80012a6:	23c0      	movs	r3, #192	; 0xc0
 80012a8:	029b      	lsls	r3, r3, #10
 80012aa:	4013      	ands	r3, r2
 80012ac:	d100      	bne.n	80012b0 <HAL_GPIO_Init+0x174>
 80012ae:	e09a      	b.n	80013e6 <HAL_GPIO_Init+0x2aa>
 80012b0:	4b54      	ldr	r3, [pc, #336]	; (8001404 <HAL_GPIO_Init+0x2c8>)
 80012b2:	699a      	ldr	r2, [r3, #24]
 80012b4:	4b53      	ldr	r3, [pc, #332]	; (8001404 <HAL_GPIO_Init+0x2c8>)
 80012b6:	2101      	movs	r1, #1
 80012b8:	430a      	orrs	r2, r1
 80012ba:	619a      	str	r2, [r3, #24]
 80012bc:	4b51      	ldr	r3, [pc, #324]	; (8001404 <HAL_GPIO_Init+0x2c8>)
 80012be:	699b      	ldr	r3, [r3, #24]
 80012c0:	2201      	movs	r2, #1
 80012c2:	4013      	ands	r3, r2
 80012c4:	60bb      	str	r3, [r7, #8]
 80012c6:	68bb      	ldr	r3, [r7, #8]
 80012c8:	4a4f      	ldr	r2, [pc, #316]	; (8001408 <HAL_GPIO_Init+0x2cc>)
 80012ca:	697b      	ldr	r3, [r7, #20]
 80012cc:	089b      	lsrs	r3, r3, #2
 80012ce:	3302      	adds	r3, #2
 80012d0:	009b      	lsls	r3, r3, #2
 80012d2:	589b      	ldr	r3, [r3, r2]
 80012d4:	613b      	str	r3, [r7, #16]
 80012d6:	697b      	ldr	r3, [r7, #20]
 80012d8:	2203      	movs	r2, #3
 80012da:	4013      	ands	r3, r2
 80012dc:	009b      	lsls	r3, r3, #2
 80012de:	220f      	movs	r2, #15
 80012e0:	409a      	lsls	r2, r3
 80012e2:	0013      	movs	r3, r2
 80012e4:	43da      	mvns	r2, r3
 80012e6:	693b      	ldr	r3, [r7, #16]
 80012e8:	4013      	ands	r3, r2
 80012ea:	613b      	str	r3, [r7, #16]
 80012ec:	687a      	ldr	r2, [r7, #4]
 80012ee:	2390      	movs	r3, #144	; 0x90
 80012f0:	05db      	lsls	r3, r3, #23
 80012f2:	429a      	cmp	r2, r3
 80012f4:	d013      	beq.n	800131e <HAL_GPIO_Init+0x1e2>
 80012f6:	687b      	ldr	r3, [r7, #4]
 80012f8:	4a44      	ldr	r2, [pc, #272]	; (800140c <HAL_GPIO_Init+0x2d0>)
 80012fa:	4293      	cmp	r3, r2
 80012fc:	d00d      	beq.n	800131a <HAL_GPIO_Init+0x1de>
 80012fe:	687b      	ldr	r3, [r7, #4]
 8001300:	4a43      	ldr	r2, [pc, #268]	; (8001410 <HAL_GPIO_Init+0x2d4>)
 8001302:	4293      	cmp	r3, r2
 8001304:	d007      	beq.n	8001316 <HAL_GPIO_Init+0x1da>
 8001306:	687b      	ldr	r3, [r7, #4]
 8001308:	4a42      	ldr	r2, [pc, #264]	; (8001414 <HAL_GPIO_Init+0x2d8>)
 800130a:	4293      	cmp	r3, r2
 800130c:	d101      	bne.n	8001312 <HAL_GPIO_Init+0x1d6>
 800130e:	2303      	movs	r3, #3
 8001310:	e006      	b.n	8001320 <HAL_GPIO_Init+0x1e4>
 8001312:	2305      	movs	r3, #5
 8001314:	e004      	b.n	8001320 <HAL_GPIO_Init+0x1e4>
 8001316:	2302      	movs	r3, #2
 8001318:	e002      	b.n	8001320 <HAL_GPIO_Init+0x1e4>
 800131a:	2301      	movs	r3, #1
 800131c:	e000      	b.n	8001320 <HAL_GPIO_Init+0x1e4>
 800131e:	2300      	movs	r3, #0
 8001320:	697a      	ldr	r2, [r7, #20]
 8001322:	2103      	movs	r1, #3
 8001324:	400a      	ands	r2, r1
 8001326:	0092      	lsls	r2, r2, #2
 8001328:	4093      	lsls	r3, r2
 800132a:	693a      	ldr	r2, [r7, #16]
 800132c:	4313      	orrs	r3, r2
 800132e:	613b      	str	r3, [r7, #16]
 8001330:	4935      	ldr	r1, [pc, #212]	; (8001408 <HAL_GPIO_Init+0x2cc>)
 8001332:	697b      	ldr	r3, [r7, #20]
 8001334:	089b      	lsrs	r3, r3, #2
 8001336:	3302      	adds	r3, #2
 8001338:	009b      	lsls	r3, r3, #2
 800133a:	693a      	ldr	r2, [r7, #16]
 800133c:	505a      	str	r2, [r3, r1]
 800133e:	4b36      	ldr	r3, [pc, #216]	; (8001418 <HAL_GPIO_Init+0x2dc>)
 8001340:	681b      	ldr	r3, [r3, #0]
 8001342:	613b      	str	r3, [r7, #16]
 8001344:	68fb      	ldr	r3, [r7, #12]
 8001346:	43da      	mvns	r2, r3
 8001348:	693b      	ldr	r3, [r7, #16]
 800134a:	4013      	ands	r3, r2
 800134c:	613b      	str	r3, [r7, #16]
 800134e:	683b      	ldr	r3, [r7, #0]
 8001350:	685a      	ldr	r2, [r3, #4]
 8001352:	2380      	movs	r3, #128	; 0x80
 8001354:	025b      	lsls	r3, r3, #9
 8001356:	4013      	ands	r3, r2
 8001358:	d003      	beq.n	8001362 <HAL_GPIO_Init+0x226>
 800135a:	693a      	ldr	r2, [r7, #16]
 800135c:	68fb      	ldr	r3, [r7, #12]
 800135e:	4313      	orrs	r3, r2
 8001360:	613b      	str	r3, [r7, #16]
 8001362:	4b2d      	ldr	r3, [pc, #180]	; (8001418 <HAL_GPIO_Init+0x2dc>)
 8001364:	693a      	ldr	r2, [r7, #16]
 8001366:	601a      	str	r2, [r3, #0]
 8001368:	4b2b      	ldr	r3, [pc, #172]	; (8001418 <HAL_GPIO_Init+0x2dc>)
 800136a:	685b      	ldr	r3, [r3, #4]
 800136c:	613b      	str	r3, [r7, #16]
 800136e:	68fb      	ldr	r3, [r7, #12]
 8001370:	43da      	mvns	r2, r3
 8001372:	693b      	ldr	r3, [r7, #16]
 8001374:	4013      	ands	r3, r2
 8001376:	613b      	str	r3, [r7, #16]
 8001378:	683b      	ldr	r3, [r7, #0]
 800137a:	685a      	ldr	r2, [r3, #4]
 800137c:	2380      	movs	r3, #128	; 0x80
 800137e:	029b      	lsls	r3, r3, #10
 8001380:	4013      	ands	r3, r2
 8001382:	d003      	beq.n	800138c <HAL_GPIO_Init+0x250>
 8001384:	693a      	ldr	r2, [r7, #16]
 8001386:	68fb      	ldr	r3, [r7, #12]
 8001388:	4313      	orrs	r3, r2
 800138a:	613b      	str	r3, [r7, #16]
 800138c:	4b22      	ldr	r3, [pc, #136]	; (8001418 <HAL_GPIO_Init+0x2dc>)
 800138e:	693a      	ldr	r2, [r7, #16]
 8001390:	605a      	str	r2, [r3, #4]
 8001392:	4b21      	ldr	r3, [pc, #132]	; (8001418 <HAL_GPIO_Init+0x2dc>)
 8001394:	689b      	ldr	r3, [r3, #8]
 8001396:	613b      	str	r3, [r7, #16]
 8001398:	68fb      	ldr	r3, [r7, #12]
 800139a:	43da      	mvns	r2, r3
 800139c:	693b      	ldr	r3, [r7, #16]
 800139e:	4013      	ands	r3, r2
 80013a0:	613b      	str	r3, [r7, #16]
 80013a2:	683b      	ldr	r3, [r7, #0]
 80013a4:	685a      	ldr	r2, [r3, #4]
 80013a6:	2380      	movs	r3, #128	; 0x80
 80013a8:	035b      	lsls	r3, r3, #13
 80013aa:	4013      	ands	r3, r2
 80013ac:	d003      	beq.n	80013b6 <HAL_GPIO_Init+0x27a>
 80013ae:	693a      	ldr	r2, [r7, #16]
 80013b0:	68fb      	ldr	r3, [r7, #12]
 80013b2:	4313      	orrs	r3, r2
 80013b4:	613b      	str	r3, [r7, #16]
 80013b6:	4b18      	ldr	r3, [pc, #96]	; (8001418 <HAL_GPIO_Init+0x2dc>)
 80013b8:	693a      	ldr	r2, [r7, #16]
 80013ba:	609a      	str	r2, [r3, #8]
 80013bc:	4b16      	ldr	r3, [pc, #88]	; (8001418 <HAL_GPIO_Init+0x2dc>)
 80013be:	68db      	ldr	r3, [r3, #12]
 80013c0:	613b      	str	r3, [r7, #16]
 80013c2:	68fb      	ldr	r3, [r7, #12]
 80013c4:	43da      	mvns	r2, r3
 80013c6:	693b      	ldr	r3, [r7, #16]
 80013c8:	4013      	ands	r3, r2
 80013ca:	613b      	str	r3, [r7, #16]
 80013cc:	683b      	ldr	r3, [r7, #0]
 80013ce:	685a      	ldr	r2, [r3, #4]
 80013d0:	2380      	movs	r3, #128	; 0x80
 80013d2:	039b      	lsls	r3, r3, #14
 80013d4:	4013      	ands	r3, r2
 80013d6:	d003      	beq.n	80013e0 <HAL_GPIO_Init+0x2a4>
 80013d8:	693a      	ldr	r2, [r7, #16]
 80013da:	68fb      	ldr	r3, [r7, #12]
 80013dc:	4313      	orrs	r3, r2
 80013de:	613b      	str	r3, [r7, #16]
 80013e0:	4b0d      	ldr	r3, [pc, #52]	; (8001418 <HAL_GPIO_Init+0x2dc>)
 80013e2:	693a      	ldr	r2, [r7, #16]
 80013e4:	60da      	str	r2, [r3, #12]
 80013e6:	697b      	ldr	r3, [r7, #20]
 80013e8:	3301      	adds	r3, #1
 80013ea:	617b      	str	r3, [r7, #20]
 80013ec:	683b      	ldr	r3, [r7, #0]
 80013ee:	681a      	ldr	r2, [r3, #0]
 80013f0:	697b      	ldr	r3, [r7, #20]
 80013f2:	40da      	lsrs	r2, r3
 80013f4:	1e13      	subs	r3, r2, #0
 80013f6:	d000      	beq.n	80013fa <HAL_GPIO_Init+0x2be>
 80013f8:	e6a8      	b.n	800114c <HAL_GPIO_Init+0x10>
 80013fa:	46c0      	nop			; (mov r8, r8)
 80013fc:	46c0      	nop			; (mov r8, r8)
 80013fe:	46bd      	mov	sp, r7
 8001400:	b006      	add	sp, #24
 8001402:	bd80      	pop	{r7, pc}
 8001404:	40021000 	.word	0x40021000
 8001408:	40010000 	.word	0x40010000
 800140c:	48000400 	.word	0x48000400
 8001410:	48000800 	.word	0x48000800
 8001414:	48000c00 	.word	0x48000c00
 8001418:	40010400 	.word	0x40010400

0800141c <HAL_GPIO_WritePin>:
 800141c:	b580      	push	{r7, lr}
 800141e:	b082      	sub	sp, #8
 8001420:	af00      	add	r7, sp, #0
 8001422:	6078      	str	r0, [r7, #4]
 8001424:	0008      	movs	r0, r1
 8001426:	0011      	movs	r1, r2
 8001428:	1cbb      	adds	r3, r7, #2
 800142a:	1c02      	adds	r2, r0, #0
 800142c:	801a      	strh	r2, [r3, #0]
 800142e:	1c7b      	adds	r3, r7, #1
 8001430:	1c0a      	adds	r2, r1, #0
 8001432:	701a      	strb	r2, [r3, #0]
 8001434:	1c7b      	adds	r3, r7, #1
 8001436:	781b      	ldrb	r3, [r3, #0]
 8001438:	2b00      	cmp	r3, #0
 800143a:	d004      	beq.n	8001446 <HAL_GPIO_WritePin+0x2a>
 800143c:	1cbb      	adds	r3, r7, #2
 800143e:	881a      	ldrh	r2, [r3, #0]
 8001440:	687b      	ldr	r3, [r7, #4]
 8001442:	619a      	str	r2, [r3, #24]
 8001444:	e003      	b.n	800144e <HAL_GPIO_WritePin+0x32>
 8001446:	1cbb      	adds	r3, r7, #2
 8001448:	881a      	ldrh	r2, [r3, #0]
 800144a:	687b      	ldr	r3, [r7, #4]
 800144c:	629a      	str	r2, [r3, #40]	; 0x28
 800144e:	46c0      	nop			; (mov r8, r8)
 8001450:	46bd      	mov	sp, r7
 8001452:	b002      	add	sp, #8
 8001454:	bd80      	pop	{r7, pc}

08001456 <HAL_GPIO_TogglePin>:
 8001456:	b580      	push	{r7, lr}
 8001458:	b084      	sub	sp, #16
 800145a:	af00      	add	r7, sp, #0
 800145c:	6078      	str	r0, [r7, #4]
 800145e:	000a      	movs	r2, r1
 8001460:	1cbb      	adds	r3, r7, #2
 8001462:	801a      	strh	r2, [r3, #0]
 8001464:	687b      	ldr	r3, [r7, #4]
 8001466:	695b      	ldr	r3, [r3, #20]
 8001468:	60fb      	str	r3, [r7, #12]
 800146a:	1cbb      	adds	r3, r7, #2
 800146c:	881b      	ldrh	r3, [r3, #0]
 800146e:	68fa      	ldr	r2, [r7, #12]
 8001470:	4013      	ands	r3, r2
 8001472:	041a      	lsls	r2, r3, #16
 8001474:	68fb      	ldr	r3, [r7, #12]
 8001476:	43db      	mvns	r3, r3
 8001478:	1cb9      	adds	r1, r7, #2
 800147a:	8809      	ldrh	r1, [r1, #0]
 800147c:	400b      	ands	r3, r1
 800147e:	431a      	orrs	r2, r3
 8001480:	687b      	ldr	r3, [r7, #4]
 8001482:	619a      	str	r2, [r3, #24]
 8001484:	46c0      	nop			; (mov r8, r8)
 8001486:	46bd      	mov	sp, r7
 8001488:	b004      	add	sp, #16
 800148a:	bd80      	pop	{r7, pc}

0800148c <HAL_GPIO_EXTI_IRQHandler>:
 800148c:	b580      	push	{r7, lr}
 800148e:	b082      	sub	sp, #8
 8001490:	af00      	add	r7, sp, #0
 8001492:	0002      	movs	r2, r0
 8001494:	1dbb      	adds	r3, r7, #6
 8001496:	801a      	strh	r2, [r3, #0]
 8001498:	4b09      	ldr	r3, [pc, #36]	; (80014c0 <HAL_GPIO_EXTI_IRQHandler+0x34>)
 800149a:	695b      	ldr	r3, [r3, #20]
 800149c:	1dba      	adds	r2, r7, #6
 800149e:	8812      	ldrh	r2, [r2, #0]
 80014a0:	4013      	ands	r3, r2
 80014a2:	d008      	beq.n	80014b6 <HAL_GPIO_EXTI_IRQHandler+0x2a>
 80014a4:	4b06      	ldr	r3, [pc, #24]	; (80014c0 <HAL_GPIO_EXTI_IRQHandler+0x34>)
 80014a6:	1dba      	adds	r2, r7, #6
 80014a8:	8812      	ldrh	r2, [r2, #0]
 80014aa:	615a      	str	r2, [r3, #20]
 80014ac:	1dbb      	adds	r3, r7, #6
 80014ae:	881b      	ldrh	r3, [r3, #0]
 80014b0:	0018      	movs	r0, r3
 80014b2:	f7ff f9a9 	bl	8000808 <HAL_GPIO_EXTI_Callback>
 80014b6:	46c0      	nop			; (mov r8, r8)
 80014b8:	46bd      	mov	sp, r7
 80014ba:	b002      	add	sp, #8
 80014bc:	bd80      	pop	{r7, pc}
 80014be:	46c0      	nop			; (mov r8, r8)
 80014c0:	40010400 	.word	0x40010400

080014c4 <HAL_I2C_Init>:
 80014c4:	b580      	push	{r7, lr}
 80014c6:	b082      	sub	sp, #8
 80014c8:	af00      	add	r7, sp, #0
 80014ca:	6078      	str	r0, [r7, #4]
 80014cc:	687b      	ldr	r3, [r7, #4]
 80014ce:	2b00      	cmp	r3, #0
 80014d0:	d101      	bne.n	80014d6 <HAL_I2C_Init+0x12>
 80014d2:	2301      	movs	r3, #1
 80014d4:	e082      	b.n	80015dc <HAL_I2C_Init+0x118>
 80014d6:	687b      	ldr	r3, [r7, #4]
 80014d8:	2241      	movs	r2, #65	; 0x41
 80014da:	5c9b      	ldrb	r3, [r3, r2]
 80014dc:	b2db      	uxtb	r3, r3
 80014de:	2b00      	cmp	r3, #0
 80014e0:	d107      	bne.n	80014f2 <HAL_I2C_Init+0x2e>
 80014e2:	687b      	ldr	r3, [r7, #4]
 80014e4:	2240      	movs	r2, #64	; 0x40
 80014e6:	2100      	movs	r1, #0
 80014e8:	5499      	strb	r1, [r3, r2]
 80014ea:	687b      	ldr	r3, [r7, #4]
 80014ec:	0018      	movs	r0, r3
 80014ee:	f7ff fb7b 	bl	8000be8 <HAL_I2C_MspInit>
 80014f2:	687b      	ldr	r3, [r7, #4]
 80014f4:	2241      	movs	r2, #65	; 0x41
 80014f6:	2124      	movs	r1, #36	; 0x24
 80014f8:	5499      	strb	r1, [r3, r2]
 80014fa:	687b      	ldr	r3, [r7, #4]
 80014fc:	681b      	ldr	r3, [r3, #0]
 80014fe:	681a      	ldr	r2, [r3, #0]
 8001500:	687b      	ldr	r3, [r7, #4]
 8001502:	681b      	ldr	r3, [r3, #0]
 8001504:	2101      	movs	r1, #1
 8001506:	438a      	bics	r2, r1
 8001508:	601a      	str	r2, [r3, #0]
 800150a:	687b      	ldr	r3, [r7, #4]
 800150c:	685a      	ldr	r2, [r3, #4]
 800150e:	687b      	ldr	r3, [r7, #4]
 8001510:	681b      	ldr	r3, [r3, #0]
 8001512:	4934      	ldr	r1, [pc, #208]	; (80015e4 <HAL_I2C_Init+0x120>)
 8001514:	400a      	ands	r2, r1
 8001516:	611a      	str	r2, [r3, #16]
 8001518:	687b      	ldr	r3, [r7, #4]
 800151a:	681b      	ldr	r3, [r3, #0]
 800151c:	689a      	ldr	r2, [r3, #8]
 800151e:	687b      	ldr	r3, [r7, #4]
 8001520:	681b      	ldr	r3, [r3, #0]
 8001522:	4931      	ldr	r1, [pc, #196]	; (80015e8 <HAL_I2C_Init+0x124>)
 8001524:	400a      	ands	r2, r1
 8001526:	609a      	str	r2, [r3, #8]
 8001528:	687b      	ldr	r3, [r7, #4]
 800152a:	68db      	ldr	r3, [r3, #12]
 800152c:	2b01      	cmp	r3, #1
 800152e:	d108      	bne.n	8001542 <HAL_I2C_Init+0x7e>
 8001530:	687b      	ldr	r3, [r7, #4]
 8001532:	689a      	ldr	r2, [r3, #8]
 8001534:	687b      	ldr	r3, [r7, #4]
 8001536:	681b      	ldr	r3, [r3, #0]
 8001538:	2180      	movs	r1, #128	; 0x80
 800153a:	0209      	lsls	r1, r1, #8
 800153c:	430a      	orrs	r2, r1
 800153e:	609a      	str	r2, [r3, #8]
 8001540:	e007      	b.n	8001552 <HAL_I2C_Init+0x8e>
 8001542:	687b      	ldr	r3, [r7, #4]
 8001544:	689a      	ldr	r2, [r3, #8]
 8001546:	687b      	ldr	r3, [r7, #4]
 8001548:	681b      	ldr	r3, [r3, #0]
 800154a:	2184      	movs	r1, #132	; 0x84
 800154c:	0209      	lsls	r1, r1, #8
 800154e:	430a      	orrs	r2, r1
 8001550:	609a      	str	r2, [r3, #8]
 8001552:	687b      	ldr	r3, [r7, #4]
 8001554:	68db      	ldr	r3, [r3, #12]
 8001556:	2b02      	cmp	r3, #2
 8001558:	d104      	bne.n	8001564 <HAL_I2C_Init+0xa0>
 800155a:	687b      	ldr	r3, [r7, #4]
 800155c:	681b      	ldr	r3, [r3, #0]
 800155e:	2280      	movs	r2, #128	; 0x80
 8001560:	0112      	lsls	r2, r2, #4
 8001562:	605a      	str	r2, [r3, #4]
 8001564:	687b      	ldr	r3, [r7, #4]
 8001566:	681b      	ldr	r3, [r3, #0]
 8001568:	685a      	ldr	r2, [r3, #4]
 800156a:	687b      	ldr	r3, [r7, #4]
 800156c:	681b      	ldr	r3, [r3, #0]
 800156e:	491f      	ldr	r1, [pc, #124]	; (80015ec <HAL_I2C_Init+0x128>)
 8001570:	430a      	orrs	r2, r1
 8001572:	605a      	str	r2, [r3, #4]
 8001574:	687b      	ldr	r3, [r7, #4]
 8001576:	681b      	ldr	r3, [r3, #0]
 8001578:	68da      	ldr	r2, [r3, #12]
 800157a:	687b      	ldr	r3, [r7, #4]
 800157c:	681b      	ldr	r3, [r3, #0]
 800157e:	491a      	ldr	r1, [pc, #104]	; (80015e8 <HAL_I2C_Init+0x124>)
 8001580:	400a      	ands	r2, r1
 8001582:	60da      	str	r2, [r3, #12]
 8001584:	687b      	ldr	r3, [r7, #4]
 8001586:	691a      	ldr	r2, [r3, #16]
 8001588:	687b      	ldr	r3, [r7, #4]
 800158a:	695b      	ldr	r3, [r3, #20]
 800158c:	431a      	orrs	r2, r3
 800158e:	0011      	movs	r1, r2
 8001590:	687b      	ldr	r3, [r7, #4]
 8001592:	699b      	ldr	r3, [r3, #24]
 8001594:	021a      	lsls	r2, r3, #8
 8001596:	687b      	ldr	r3, [r7, #4]
 8001598:	681b      	ldr	r3, [r3, #0]
 800159a:	430a      	orrs	r2, r1
 800159c:	60da      	str	r2, [r3, #12]
 800159e:	687b      	ldr	r3, [r7, #4]
 80015a0:	69d9      	ldr	r1, [r3, #28]
 80015a2:	687b      	ldr	r3, [r7, #4]
 80015a4:	6a1a      	ldr	r2, [r3, #32]
 80015a6:	687b      	ldr	r3, [r7, #4]
 80015a8:	681b      	ldr	r3, [r3, #0]
 80015aa:	430a      	orrs	r2, r1
 80015ac:	601a      	str	r2, [r3, #0]
 80015ae:	687b      	ldr	r3, [r7, #4]
 80015b0:	681b      	ldr	r3, [r3, #0]
 80015b2:	681a      	ldr	r2, [r3, #0]
 80015b4:	687b      	ldr	r3, [r7, #4]
 80015b6:	681b      	ldr	r3, [r3, #0]
 80015b8:	2101      	movs	r1, #1
 80015ba:	430a      	orrs	r2, r1
 80015bc:	601a      	str	r2, [r3, #0]
 80015be:	687b      	ldr	r3, [r7, #4]
 80015c0:	2200      	movs	r2, #0
 80015c2:	645a      	str	r2, [r3, #68]	; 0x44
 80015c4:	687b      	ldr	r3, [r7, #4]
 80015c6:	2241      	movs	r2, #65	; 0x41
 80015c8:	2120      	movs	r1, #32
 80015ca:	5499      	strb	r1, [r3, r2]
 80015cc:	687b      	ldr	r3, [r7, #4]
 80015ce:	2200      	movs	r2, #0
 80015d0:	631a      	str	r2, [r3, #48]	; 0x30
 80015d2:	687b      	ldr	r3, [r7, #4]
 80015d4:	2242      	movs	r2, #66	; 0x42
 80015d6:	2100      	movs	r1, #0
 80015d8:	5499      	strb	r1, [r3, r2]
 80015da:	2300      	movs	r3, #0
 80015dc:	0018      	movs	r0, r3
 80015de:	46bd      	mov	sp, r7
 80015e0:	b002      	add	sp, #8
 80015e2:	bd80      	pop	{r7, pc}
 80015e4:	f0ffffff 	.word	0xf0ffffff
 80015e8:	ffff7fff 	.word	0xffff7fff
 80015ec:	02008000 	.word	0x02008000

080015f0 <HAL_I2C_Mem_Write>:
 80015f0:	b590      	push	{r4, r7, lr}
 80015f2:	b089      	sub	sp, #36	; 0x24
 80015f4:	af02      	add	r7, sp, #8
 80015f6:	60f8      	str	r0, [r7, #12]
 80015f8:	000c      	movs	r4, r1
 80015fa:	0010      	movs	r0, r2
 80015fc:	0019      	movs	r1, r3
 80015fe:	230a      	movs	r3, #10
 8001600:	18fb      	adds	r3, r7, r3
 8001602:	1c22      	adds	r2, r4, #0
 8001604:	801a      	strh	r2, [r3, #0]
 8001606:	2308      	movs	r3, #8
 8001608:	18fb      	adds	r3, r7, r3
 800160a:	1c02      	adds	r2, r0, #0
 800160c:	801a      	strh	r2, [r3, #0]
 800160e:	1dbb      	adds	r3, r7, #6
 8001610:	1c0a      	adds	r2, r1, #0
 8001612:	801a      	strh	r2, [r3, #0]
 8001614:	68fb      	ldr	r3, [r7, #12]
 8001616:	2241      	movs	r2, #65	; 0x41
 8001618:	5c9b      	ldrb	r3, [r3, r2]
 800161a:	b2db      	uxtb	r3, r3
 800161c:	2b20      	cmp	r3, #32
 800161e:	d000      	beq.n	8001622 <HAL_I2C_Mem_Write+0x32>
 8001620:	e10c      	b.n	800183c <HAL_I2C_Mem_Write+0x24c>
 8001622:	6abb      	ldr	r3, [r7, #40]	; 0x28
 8001624:	2b00      	cmp	r3, #0
 8001626:	d004      	beq.n	8001632 <HAL_I2C_Mem_Write+0x42>
 8001628:	232c      	movs	r3, #44	; 0x2c
 800162a:	18fb      	adds	r3, r7, r3
 800162c:	881b      	ldrh	r3, [r3, #0]
 800162e:	2b00      	cmp	r3, #0
 8001630:	d105      	bne.n	800163e <HAL_I2C_Mem_Write+0x4e>
 8001632:	68fb      	ldr	r3, [r7, #12]
 8001634:	2280      	movs	r2, #128	; 0x80
 8001636:	0092      	lsls	r2, r2, #2
 8001638:	645a      	str	r2, [r3, #68]	; 0x44
 800163a:	2301      	movs	r3, #1
 800163c:	e0ff      	b.n	800183e <HAL_I2C_Mem_Write+0x24e>
 800163e:	68fb      	ldr	r3, [r7, #12]
 8001640:	2240      	movs	r2, #64	; 0x40
 8001642:	5c9b      	ldrb	r3, [r3, r2]
 8001644:	2b01      	cmp	r3, #1
 8001646:	d101      	bne.n	800164c <HAL_I2C_Mem_Write+0x5c>
 8001648:	2302      	movs	r3, #2
 800164a:	e0f8      	b.n	800183e <HAL_I2C_Mem_Write+0x24e>
 800164c:	68fb      	ldr	r3, [r7, #12]
 800164e:	2240      	movs	r2, #64	; 0x40
 8001650:	2101      	movs	r1, #1
 8001652:	5499      	strb	r1, [r3, r2]
 8001654:	f7ff fc14 	bl	8000e80 <HAL_GetTick>
 8001658:	0003      	movs	r3, r0
 800165a:	617b      	str	r3, [r7, #20]
 800165c:	2380      	movs	r3, #128	; 0x80
 800165e:	0219      	lsls	r1, r3, #8
 8001660:	68f8      	ldr	r0, [r7, #12]
 8001662:	697b      	ldr	r3, [r7, #20]
 8001664:	9300      	str	r3, [sp, #0]
 8001666:	2319      	movs	r3, #25
 8001668:	2201      	movs	r2, #1
 800166a:	f001 f885 	bl	8002778 <I2C_WaitOnFlagUntilTimeout>
 800166e:	1e03      	subs	r3, r0, #0
 8001670:	d001      	beq.n	8001676 <HAL_I2C_Mem_Write+0x86>
 8001672:	2301      	movs	r3, #1
 8001674:	e0e3      	b.n	800183e <HAL_I2C_Mem_Write+0x24e>
 8001676:	68fb      	ldr	r3, [r7, #12]
 8001678:	2241      	movs	r2, #65	; 0x41
 800167a:	2121      	movs	r1, #33	; 0x21
 800167c:	5499      	strb	r1, [r3, r2]
 800167e:	68fb      	ldr	r3, [r7, #12]
 8001680:	2242      	movs	r2, #66	; 0x42
 8001682:	2140      	movs	r1, #64	; 0x40
 8001684:	5499      	strb	r1, [r3, r2]
 8001686:	68fb      	ldr	r3, [r7, #12]
 8001688:	2200      	movs	r2, #0
 800168a:	645a      	str	r2, [r3, #68]	; 0x44
 800168c:	68fb      	ldr	r3, [r7, #12]
 800168e:	6aba      	ldr	r2, [r7, #40]	; 0x28
 8001690:	625a      	str	r2, [r3, #36]	; 0x24
 8001692:	68fb      	ldr	r3, [r7, #12]
 8001694:	222c      	movs	r2, #44	; 0x2c
 8001696:	18ba      	adds	r2, r7, r2
 8001698:	8812      	ldrh	r2, [r2, #0]
 800169a:	855a      	strh	r2, [r3, #42]	; 0x2a
 800169c:	68fb      	ldr	r3, [r7, #12]
 800169e:	2200      	movs	r2, #0
 80016a0:	635a      	str	r2, [r3, #52]	; 0x34
 80016a2:	1dbb      	adds	r3, r7, #6
 80016a4:	881c      	ldrh	r4, [r3, #0]
 80016a6:	2308      	movs	r3, #8
 80016a8:	18fb      	adds	r3, r7, r3
 80016aa:	881a      	ldrh	r2, [r3, #0]
 80016ac:	230a      	movs	r3, #10
 80016ae:	18fb      	adds	r3, r7, r3
 80016b0:	8819      	ldrh	r1, [r3, #0]
 80016b2:	68f8      	ldr	r0, [r7, #12]
 80016b4:	697b      	ldr	r3, [r7, #20]
 80016b6:	9301      	str	r3, [sp, #4]
 80016b8:	6b3b      	ldr	r3, [r7, #48]	; 0x30
 80016ba:	9300      	str	r3, [sp, #0]
 80016bc:	0023      	movs	r3, r4
 80016be:	f000 fbc1 	bl	8001e44 <I2C_RequestMemoryWrite>
 80016c2:	1e03      	subs	r3, r0, #0
 80016c4:	d005      	beq.n	80016d2 <HAL_I2C_Mem_Write+0xe2>
 80016c6:	68fb      	ldr	r3, [r7, #12]
 80016c8:	2240      	movs	r2, #64	; 0x40
 80016ca:	2100      	movs	r1, #0
 80016cc:	5499      	strb	r1, [r3, r2]
 80016ce:	2301      	movs	r3, #1
 80016d0:	e0b5      	b.n	800183e <HAL_I2C_Mem_Write+0x24e>
 80016d2:	68fb      	ldr	r3, [r7, #12]
 80016d4:	8d5b      	ldrh	r3, [r3, #42]	; 0x2a
 80016d6:	b29b      	uxth	r3, r3
 80016d8:	2bff      	cmp	r3, #255	; 0xff
 80016da:	d911      	bls.n	8001700 <HAL_I2C_Mem_Write+0x110>
 80016dc:	68fb      	ldr	r3, [r7, #12]
 80016de:	22ff      	movs	r2, #255	; 0xff
 80016e0:	851a      	strh	r2, [r3, #40]	; 0x28
 80016e2:	68fb      	ldr	r3, [r7, #12]
 80016e4:	8d1b      	ldrh	r3, [r3, #40]	; 0x28
 80016e6:	b2da      	uxtb	r2, r3
 80016e8:	2380      	movs	r3, #128	; 0x80
 80016ea:	045c      	lsls	r4, r3, #17
 80016ec:	230a      	movs	r3, #10
 80016ee:	18fb      	adds	r3, r7, r3
 80016f0:	8819      	ldrh	r1, [r3, #0]
 80016f2:	68f8      	ldr	r0, [r7, #12]
 80016f4:	2300      	movs	r3, #0
 80016f6:	9300      	str	r3, [sp, #0]
 80016f8:	0023      	movs	r3, r4
 80016fa:	f001 f971 	bl	80029e0 <I2C_TransferConfig>
 80016fe:	e012      	b.n	8001726 <HAL_I2C_Mem_Write+0x136>
 8001700:	68fb      	ldr	r3, [r7, #12]
 8001702:	8d5b      	ldrh	r3, [r3, #42]	; 0x2a
 8001704:	b29a      	uxth	r2, r3
 8001706:	68fb      	ldr	r3, [r7, #12]
 8001708:	851a      	strh	r2, [r3, #40]	; 0x28
 800170a:	68fb      	ldr	r3, [r7, #12]
 800170c:	8d1b      	ldrh	r3, [r3, #40]	; 0x28
 800170e:	b2da      	uxtb	r2, r3
 8001710:	2380      	movs	r3, #128	; 0x80
 8001712:	049c      	lsls	r4, r3, #18
 8001714:	230a      	movs	r3, #10
 8001716:	18fb      	adds	r3, r7, r3
 8001718:	8819      	ldrh	r1, [r3, #0]
 800171a:	68f8      	ldr	r0, [r7, #12]
 800171c:	2300      	movs	r3, #0
 800171e:	9300      	str	r3, [sp, #0]
 8001720:	0023      	movs	r3, r4
 8001722:	f001 f95d 	bl	80029e0 <I2C_TransferConfig>
 8001726:	697a      	ldr	r2, [r7, #20]
 8001728:	6b39      	ldr	r1, [r7, #48]	; 0x30
 800172a:	68fb      	ldr	r3, [r7, #12]
 800172c:	0018      	movs	r0, r3
 800172e:	f001 f862 	bl	80027f6 <I2C_WaitOnTXISFlagUntilTimeout>
 8001732:	1e03      	subs	r3, r0, #0
 8001734:	d001      	beq.n	800173a <HAL_I2C_Mem_Write+0x14a>
 8001736:	2301      	movs	r3, #1
 8001738:	e081      	b.n	800183e <HAL_I2C_Mem_Write+0x24e>
 800173a:	68fb      	ldr	r3, [r7, #12]
 800173c:	6a5b      	ldr	r3, [r3, #36]	; 0x24
 800173e:	781a      	ldrb	r2, [r3, #0]
 8001740:	68fb      	ldr	r3, [r7, #12]
 8001742:	681b      	ldr	r3, [r3, #0]
 8001744:	629a      	str	r2, [r3, #40]	; 0x28
 8001746:	68fb      	ldr	r3, [r7, #12]
 8001748:	6a5b      	ldr	r3, [r3, #36]	; 0x24
 800174a:	1c5a      	adds	r2, r3, #1
 800174c:	68fb      	ldr	r3, [r7, #12]
 800174e:	625a      	str	r2, [r3, #36]	; 0x24
 8001750:	68fb      	ldr	r3, [r7, #12]
 8001752:	8d5b      	ldrh	r3, [r3, #42]	; 0x2a
 8001754:	b29b      	uxth	r3, r3
 8001756:	3b01      	subs	r3, #1
 8001758:	b29a      	uxth	r2, r3
 800175a:	68fb      	ldr	r3, [r7, #12]
 800175c:	855a      	strh	r2, [r3, #42]	; 0x2a
 800175e:	68fb      	ldr	r3, [r7, #12]
 8001760:	8d1b      	ldrh	r3, [r3, #40]	; 0x28
 8001762:	3b01      	subs	r3, #1
 8001764:	b29a      	uxth	r2, r3
 8001766:	68fb      	ldr	r3, [r7, #12]
 8001768:	851a      	strh	r2, [r3, #40]	; 0x28
 800176a:	68fb      	ldr	r3, [r7, #12]
 800176c:	8d5b      	ldrh	r3, [r3, #42]	; 0x2a
 800176e:	b29b      	uxth	r3, r3
 8001770:	2b00      	cmp	r3, #0
 8001772:	d03a      	beq.n	80017ea <HAL_I2C_Mem_Write+0x1fa>
 8001774:	68fb      	ldr	r3, [r7, #12]
 8001776:	8d1b      	ldrh	r3, [r3, #40]	; 0x28
 8001778:	2b00      	cmp	r3, #0
 800177a:	d136      	bne.n	80017ea <HAL_I2C_Mem_Write+0x1fa>
 800177c:	6b3a      	ldr	r2, [r7, #48]	; 0x30
 800177e:	68f8      	ldr	r0, [r7, #12]
 8001780:	697b      	ldr	r3, [r7, #20]
 8001782:	9300      	str	r3, [sp, #0]
 8001784:	0013      	movs	r3, r2
 8001786:	2200      	movs	r2, #0
 8001788:	2180      	movs	r1, #128	; 0x80
 800178a:	f000 fff5 	bl	8002778 <I2C_WaitOnFlagUntilTimeout>
 800178e:	1e03      	subs	r3, r0, #0
 8001790:	d001      	beq.n	8001796 <HAL_I2C_Mem_Write+0x1a6>
 8001792:	2301      	movs	r3, #1
 8001794:	e053      	b.n	800183e <HAL_I2C_Mem_Write+0x24e>
 8001796:	68fb      	ldr	r3, [r7, #12]
 8001798:	8d5b      	ldrh	r3, [r3, #42]	; 0x2a
 800179a:	b29b      	uxth	r3, r3
 800179c:	2bff      	cmp	r3, #255	; 0xff
 800179e:	d911      	bls.n	80017c4 <HAL_I2C_Mem_Write+0x1d4>
 80017a0:	68fb      	ldr	r3, [r7, #12]
 80017a2:	22ff      	movs	r2, #255	; 0xff
 80017a4:	851a      	strh	r2, [r3, #40]	; 0x28
 80017a6:	68fb      	ldr	r3, [r7, #12]
 80017a8:	8d1b      	ldrh	r3, [r3, #40]	; 0x28
 80017aa:	b2da      	uxtb	r2, r3
 80017ac:	2380      	movs	r3, #128	; 0x80
 80017ae:	045c      	lsls	r4, r3, #17
 80017b0:	230a      	movs	r3, #10
 80017b2:	18fb      	adds	r3, r7, r3
 80017b4:	8819      	ldrh	r1, [r3, #0]
 80017b6:	68f8      	ldr	r0, [r7, #12]
 80017b8:	2300      	movs	r3, #0
 80017ba:	9300      	str	r3, [sp, #0]
 80017bc:	0023      	movs	r3, r4
 80017be:	f001 f90f 	bl	80029e0 <I2C_TransferConfig>
 80017c2:	e012      	b.n	80017ea <HAL_I2C_Mem_Write+0x1fa>
 80017c4:	68fb      	ldr	r3, [r7, #12]
 80017c6:	8d5b      	ldrh	r3, [r3, #42]	; 0x2a
 80017c8:	b29a      	uxth	r2, r3
 80017ca:	68fb      	ldr	r3, [r7, #12]
 80017cc:	851a      	strh	r2, [r3, #40]	; 0x28
 80017ce:	68fb      	ldr	r3, [r7, #12]
 80017d0:	8d1b      	ldrh	r3, [r3, #40]	; 0x28
 80017d2:	b2da      	uxtb	r2, r3
 80017d4:	2380      	movs	r3, #128	; 0x80
 80017d6:	049c      	lsls	r4, r3, #18
 80017d8:	230a      	movs	r3, #10
 80017da:	18fb      	adds	r3, r7, r3
 80017dc:	8819      	ldrh	r1, [r3, #0]
 80017de:	68f8      	ldr	r0, [r7, #12]
 80017e0:	2300      	movs	r3, #0
 80017e2:	9300      	str	r3, [sp, #0]
 80017e4:	0023      	movs	r3, r4
 80017e6:	f001 f8fb 	bl	80029e0 <I2C_TransferConfig>
 80017ea:	68fb      	ldr	r3, [r7, #12]
 80017ec:	8d5b      	ldrh	r3, [r3, #42]	; 0x2a
 80017ee:	b29b      	uxth	r3, r3
 80017f0:	2b00      	cmp	r3, #0
 80017f2:	d198      	bne.n	8001726 <HAL_I2C_Mem_Write+0x136>
 80017f4:	697a      	ldr	r2, [r7, #20]
 80017f6:	6b39      	ldr	r1, [r7, #48]	; 0x30
 80017f8:	68fb      	ldr	r3, [r7, #12]
 80017fa:	0018      	movs	r0, r3
 80017fc:	f001 f83a 	bl	8002874 <I2C_WaitOnSTOPFlagUntilTimeout>
 8001800:	1e03      	subs	r3, r0, #0
 8001802:	d001      	beq.n	8001808 <HAL_I2C_Mem_Write+0x218>
 8001804:	2301      	movs	r3, #1
 8001806:	e01a      	b.n	800183e <HAL_I2C_Mem_Write+0x24e>
 8001808:	68fb      	ldr	r3, [r7, #12]
 800180a:	681b      	ldr	r3, [r3, #0]
 800180c:	2220      	movs	r2, #32
 800180e:	61da      	str	r2, [r3, #28]
 8001810:	68fb      	ldr	r3, [r7, #12]
 8001812:	681b      	ldr	r3, [r3, #0]
 8001814:	685a      	ldr	r2, [r3, #4]
 8001816:	68fb      	ldr	r3, [r7, #12]
 8001818:	681b      	ldr	r3, [r3, #0]
 800181a:	490b      	ldr	r1, [pc, #44]	; (8001848 <HAL_I2C_Mem_Write+0x258>)
 800181c:	400a      	ands	r2, r1
 800181e:	605a      	str	r2, [r3, #4]
 8001820:	68fb      	ldr	r3, [r7, #12]
 8001822:	2241      	movs	r2, #65	; 0x41
 8001824:	2120      	movs	r1, #32
 8001826:	5499      	strb	r1, [r3, r2]
 8001828:	68fb      	ldr	r3, [r7, #12]
 800182a:	2242      	movs	r2, #66	; 0x42
 800182c:	2100      	movs	r1, #0
 800182e:	5499      	strb	r1, [r3, r2]
 8001830:	68fb      	ldr	r3, [r7, #12]
 8001832:	2240      	movs	r2, #64	; 0x40
 8001834:	2100      	movs	r1, #0
 8001836:	5499      	strb	r1, [r3, r2]
 8001838:	2300      	movs	r3, #0
 800183a:	e000      	b.n	800183e <HAL_I2C_Mem_Write+0x24e>
 800183c:	2302      	movs	r3, #2
 800183e:	0018      	movs	r0, r3
 8001840:	46bd      	mov	sp, r7
 8001842:	b007      	add	sp, #28
 8001844:	bd90      	pop	{r4, r7, pc}
 8001846:	46c0      	nop			; (mov r8, r8)
 8001848:	fe00e800 	.word	0xfe00e800

0800184c <HAL_I2C_Mem_Read>:
 800184c:	b590      	push	{r4, r7, lr}
 800184e:	b089      	sub	sp, #36	; 0x24
 8001850:	af02      	add	r7, sp, #8
 8001852:	60f8      	str	r0, [r7, #12]
 8001854:	000c      	movs	r4, r1
 8001856:	0010      	movs	r0, r2
 8001858:	0019      	movs	r1, r3
 800185a:	230a      	movs	r3, #10
 800185c:	18fb      	adds	r3, r7, r3
 800185e:	1c22      	adds	r2, r4, #0
 8001860:	801a      	strh	r2, [r3, #0]
 8001862:	2308      	movs	r3, #8
 8001864:	18fb      	adds	r3, r7, r3
 8001866:	1c02      	adds	r2, r0, #0
 8001868:	801a      	strh	r2, [r3, #0]
 800186a:	1dbb      	adds	r3, r7, #6
 800186c:	1c0a      	adds	r2, r1, #0
 800186e:	801a      	strh	r2, [r3, #0]
 8001870:	68fb      	ldr	r3, [r7, #12]
 8001872:	2241      	movs	r2, #65	; 0x41
 8001874:	5c9b      	ldrb	r3, [r3, r2]
 8001876:	b2db      	uxtb	r3, r3
 8001878:	2b20      	cmp	r3, #32
 800187a:	d000      	beq.n	800187e <HAL_I2C_Mem_Read+0x32>
 800187c:	e110      	b.n	8001aa0 <HAL_I2C_Mem_Read+0x254>
 800187e:	6abb      	ldr	r3, [r7, #40]	; 0x28
 8001880:	2b00      	cmp	r3, #0
 8001882:	d004      	beq.n	800188e <HAL_I2C_Mem_Read+0x42>
 8001884:	232c      	movs	r3, #44	; 0x2c
 8001886:	18fb      	adds	r3, r7, r3
 8001888:	881b      	ldrh	r3, [r3, #0]
 800188a:	2b00      	cmp	r3, #0
 800188c:	d105      	bne.n	800189a <HAL_I2C_Mem_Read+0x4e>
 800188e:	68fb      	ldr	r3, [r7, #12]
 8001890:	2280      	movs	r2, #128	; 0x80
 8001892:	0092      	lsls	r2, r2, #2
 8001894:	645a      	str	r2, [r3, #68]	; 0x44
 8001896:	2301      	movs	r3, #1
 8001898:	e103      	b.n	8001aa2 <HAL_I2C_Mem_Read+0x256>
 800189a:	68fb      	ldr	r3, [r7, #12]
 800189c:	2240      	movs	r2, #64	; 0x40
 800189e:	5c9b      	ldrb	r3, [r3, r2]
 80018a0:	2b01      	cmp	r3, #1
 80018a2:	d101      	bne.n	80018a8 <HAL_I2C_Mem_Read+0x5c>
 80018a4:	2302      	movs	r3, #2
 80018a6:	e0fc      	b.n	8001aa2 <HAL_I2C_Mem_Read+0x256>
 80018a8:	68fb      	ldr	r3, [r7, #12]
 80018aa:	2240      	movs	r2, #64	; 0x40
 80018ac:	2101      	movs	r1, #1
 80018ae:	5499      	strb	r1, [r3, r2]
 80018b0:	f7ff fae6 	bl	8000e80 <HAL_GetTick>
 80018b4:	0003      	movs	r3, r0
 80018b6:	617b      	str	r3, [r7, #20]
 80018b8:	2380      	movs	r3, #128	; 0x80
 80018ba:	0219      	lsls	r1, r3, #8
 80018bc:	68f8      	ldr	r0, [r7, #12]
 80018be:	697b      	ldr	r3, [r7, #20]
 80018c0:	9300      	str	r3, [sp, #0]
 80018c2:	2319      	movs	r3, #25
 80018c4:	2201      	movs	r2, #1
 80018c6:	f000 ff57 	bl	8002778 <I2C_WaitOnFlagUntilTimeout>
 80018ca:	1e03      	subs	r3, r0, #0
 80018cc:	d001      	beq.n	80018d2 <HAL_I2C_Mem_Read+0x86>
 80018ce:	2301      	movs	r3, #1
 80018d0:	e0e7      	b.n	8001aa2 <HAL_I2C_Mem_Read+0x256>
 80018d2:	68fb      	ldr	r3, [r7, #12]
 80018d4:	2241      	movs	r2, #65	; 0x41
 80018d6:	2122      	movs	r1, #34	; 0x22
 80018d8:	5499      	strb	r1, [r3, r2]
 80018da:	68fb      	ldr	r3, [r7, #12]
 80018dc:	2242      	movs	r2, #66	; 0x42
 80018de:	2140      	movs	r1, #64	; 0x40
 80018e0:	5499      	strb	r1, [r3, r2]
 80018e2:	68fb      	ldr	r3, [r7, #12]
 80018e4:	2200      	movs	r2, #0
 80018e6:	645a      	str	r2, [r3, #68]	; 0x44
 80018e8:	68fb      	ldr	r3, [r7, #12]
 80018ea:	6aba      	ldr	r2, [r7, #40]	; 0x28
 80018ec:	625a      	str	r2, [r3, #36]	; 0x24
 80018ee:	68fb      	ldr	r3, [r7, #12]
 80018f0:	222c      	movs	r2, #44	; 0x2c
 80018f2:	18ba      	adds	r2, r7, r2
 80018f4:	8812      	ldrh	r2, [r2, #0]
 80018f6:	855a      	strh	r2, [r3, #42]	; 0x2a
 80018f8:	68fb      	ldr	r3, [r7, #12]
 80018fa:	2200      	movs	r2, #0
 80018fc:	635a      	str	r2, [r3, #52]	; 0x34
 80018fe:	1dbb      	adds	r3, r7, #6
 8001900:	881c      	ldrh	r4, [r3, #0]
 8001902:	2308      	movs	r3, #8
 8001904:	18fb      	adds	r3, r7, r3
 8001906:	881a      	ldrh	r2, [r3, #0]
 8001908:	230a      	movs	r3, #10
 800190a:	18fb      	adds	r3, r7, r3
 800190c:	8819      	ldrh	r1, [r3, #0]
 800190e:	68f8      	ldr	r0, [r7, #12]
 8001910:	697b      	ldr	r3, [r7, #20]
 8001912:	9301      	str	r3, [sp, #4]
 8001914:	6b3b      	ldr	r3, [r7, #48]	; 0x30
 8001916:	9300      	str	r3, [sp, #0]
 8001918:	0023      	movs	r3, r4
 800191a:	f000 faf7 	bl	8001f0c <I2C_RequestMemoryRead>
 800191e:	1e03      	subs	r3, r0, #0
 8001920:	d005      	beq.n	800192e <HAL_I2C_Mem_Read+0xe2>
 8001922:	68fb      	ldr	r3, [r7, #12]
 8001924:	2240      	movs	r2, #64	; 0x40
 8001926:	2100      	movs	r1, #0
 8001928:	5499      	strb	r1, [r3, r2]
 800192a:	2301      	movs	r3, #1
 800192c:	e0b9      	b.n	8001aa2 <HAL_I2C_Mem_Read+0x256>
 800192e:	68fb      	ldr	r3, [r7, #12]
 8001930:	8d5b      	ldrh	r3, [r3, #42]	; 0x2a
 8001932:	b29b      	uxth	r3, r3
 8001934:	2bff      	cmp	r3, #255	; 0xff
 8001936:	d911      	bls.n	800195c <HAL_I2C_Mem_Read+0x110>
 8001938:	68fb      	ldr	r3, [r7, #12]
 800193a:	22ff      	movs	r2, #255	; 0xff
 800193c:	851a      	strh	r2, [r3, #40]	; 0x28
 800193e:	68fb      	ldr	r3, [r7, #12]
 8001940:	8d1b      	ldrh	r3, [r3, #40]	; 0x28
 8001942:	b2da      	uxtb	r2, r3
 8001944:	2380      	movs	r3, #128	; 0x80
 8001946:	045c      	lsls	r4, r3, #17
 8001948:	230a      	movs	r3, #10
 800194a:	18fb      	adds	r3, r7, r3
 800194c:	8819      	ldrh	r1, [r3, #0]
 800194e:	68f8      	ldr	r0, [r7, #12]
 8001950:	4b56      	ldr	r3, [pc, #344]	; (8001aac <HAL_I2C_Mem_Read+0x260>)
 8001952:	9300      	str	r3, [sp, #0]
 8001954:	0023      	movs	r3, r4
 8001956:	f001 f843 	bl	80029e0 <I2C_TransferConfig>
 800195a:	e012      	b.n	8001982 <HAL_I2C_Mem_Read+0x136>
 800195c:	68fb      	ldr	r3, [r7, #12]
 800195e:	8d5b      	ldrh	r3, [r3, #42]	; 0x2a
 8001960:	b29a      	uxth	r2, r3
 8001962:	68fb      	ldr	r3, [r7, #12]
 8001964:	851a      	strh	r2, [r3, #40]	; 0x28
 8001966:	68fb      	ldr	r3, [r7, #12]
 8001968:	8d1b      	ldrh	r3, [r3, #40]	; 0x28
 800196a:	b2da      	uxtb	r2, r3
 800196c:	2380      	movs	r3, #128	; 0x80
 800196e:	049c      	lsls	r4, r3, #18
 8001970:	230a      	movs	r3, #10
 8001972:	18fb      	adds	r3, r7, r3
 8001974:	8819      	ldrh	r1, [r3, #0]
 8001976:	68f8      	ldr	r0, [r7, #12]
 8001978:	4b4c      	ldr	r3, [pc, #304]	; (8001aac <HAL_I2C_Mem_Read+0x260>)
 800197a:	9300      	str	r3, [sp, #0]
 800197c:	0023      	movs	r3, r4
 800197e:	f001 f82f 	bl	80029e0 <I2C_TransferConfig>
 8001982:	6b3a      	ldr	r2, [r7, #48]	; 0x30
 8001984:	68f8      	ldr	r0, [r7, #12]
 8001986:	697b      	ldr	r3, [r7, #20]
 8001988:	9300      	str	r3, [sp, #0]
 800198a:	0013      	movs	r3, r2
 800198c:	2200      	movs	r2, #0
 800198e:	2104      	movs	r1, #4
 8001990:	f000 fef2 	bl	8002778 <I2C_WaitOnFlagUntilTimeout>
 8001994:	1e03      	subs	r3, r0, #0
 8001996:	d001      	beq.n	800199c <HAL_I2C_Mem_Read+0x150>
 8001998:	2301      	movs	r3, #1
 800199a:	e082      	b.n	8001aa2 <HAL_I2C_Mem_Read+0x256>
 800199c:	68fb      	ldr	r3, [r7, #12]
 800199e:	681b      	ldr	r3, [r3, #0]
 80019a0:	6a5a      	ldr	r2, [r3, #36]	; 0x24
 80019a2:	68fb      	ldr	r3, [r7, #12]
 80019a4:	6a5b      	ldr	r3, [r3, #36]	; 0x24
 80019a6:	b2d2      	uxtb	r2, r2
 80019a8:	701a      	strb	r2, [r3, #0]
 80019aa:	68fb      	ldr	r3, [r7, #12]
 80019ac:	6a5b      	ldr	r3, [r3, #36]	; 0x24
 80019ae:	1c5a      	adds	r2, r3, #1
 80019b0:	68fb      	ldr	r3, [r7, #12]
 80019b2:	625a      	str	r2, [r3, #36]	; 0x24
 80019b4:	68fb      	ldr	r3, [r7, #12]
 80019b6:	8d1b      	ldrh	r3, [r3, #40]	; 0x28
 80019b8:	3b01      	subs	r3, #1
 80019ba:	b29a      	uxth	r2, r3
 80019bc:	68fb      	ldr	r3, [r7, #12]
 80019be:	851a      	strh	r2, [r3, #40]	; 0x28
 80019c0:	68fb      	ldr	r3, [r7, #12]
 80019c2:	8d5b      	ldrh	r3, [r3, #42]	; 0x2a
 80019c4:	b29b      	uxth	r3, r3
 80019c6:	3b01      	subs	r3, #1
 80019c8:	b29a      	uxth	r2, r3
 80019ca:	68fb      	ldr	r3, [r7, #12]
 80019cc:	855a      	strh	r2, [r3, #42]	; 0x2a
 80019ce:	68fb      	ldr	r3, [r7, #12]
 80019d0:	8d5b      	ldrh	r3, [r3, #42]	; 0x2a
 80019d2:	b29b      	uxth	r3, r3
 80019d4:	2b00      	cmp	r3, #0
 80019d6:	d03a      	beq.n	8001a4e <HAL_I2C_Mem_Read+0x202>
 80019d8:	68fb      	ldr	r3, [r7, #12]
 80019da:	8d1b      	ldrh	r3, [r3, #40]	; 0x28
 80019dc:	2b00      	cmp	r3, #0
 80019de:	d136      	bne.n	8001a4e <HAL_I2C_Mem_Read+0x202>
 80019e0:	6b3a      	ldr	r2, [r7, #48]	; 0x30
 80019e2:	68f8      	ldr	r0, [r7, #12]
 80019e4:	697b      	ldr	r3, [r7, #20]
 80019e6:	9300      	str	r3, [sp, #0]
 80019e8:	0013      	movs	r3, r2
 80019ea:	2200      	movs	r2, #0
 80019ec:	2180      	movs	r1, #128	; 0x80
 80019ee:	f000 fec3 	bl	8002778 <I2C_WaitOnFlagUntilTimeout>
 80019f2:	1e03      	subs	r3, r0, #0
 80019f4:	d001      	beq.n	80019fa <HAL_I2C_Mem_Read+0x1ae>
 80019f6:	2301      	movs	r3, #1
 80019f8:	e053      	b.n	8001aa2 <HAL_I2C_Mem_Read+0x256>
 80019fa:	68fb      	ldr	r3, [r7, #12]
 80019fc:	8d5b      	ldrh	r3, [r3, #42]	; 0x2a
 80019fe:	b29b      	uxth	r3, r3
 8001a00:	2bff      	cmp	r3, #255	; 0xff
 8001a02:	d911      	bls.n	8001a28 <HAL_I2C_Mem_Read+0x1dc>
 8001a04:	68fb      	ldr	r3, [r7, #12]
 8001a06:	22ff      	movs	r2, #255	; 0xff
 8001a08:	851a      	strh	r2, [r3, #40]	; 0x28
 8001a0a:	68fb      	ldr	r3, [r7, #12]
 8001a0c:	8d1b      	ldrh	r3, [r3, #40]	; 0x28
 8001a0e:	b2da      	uxtb	r2, r3
 8001a10:	2380      	movs	r3, #128	; 0x80
 8001a12:	045c      	lsls	r4, r3, #17
 8001a14:	230a      	movs	r3, #10
 8001a16:	18fb      	adds	r3, r7, r3
 8001a18:	8819      	ldrh	r1, [r3, #0]
 8001a1a:	68f8      	ldr	r0, [r7, #12]
 8001a1c:	2300      	movs	r3, #0
 8001a1e:	9300      	str	r3, [sp, #0]
 8001a20:	0023      	movs	r3, r4
 8001a22:	f000 ffdd 	bl	80029e0 <I2C_TransferConfig>
 8001a26:	e012      	b.n	8001a4e <HAL_I2C_Mem_Read+0x202>
 8001a28:	68fb      	ldr	r3, [r7, #12]
 8001a2a:	8d5b      	ldrh	r3, [r3, #42]	; 0x2a
 8001a2c:	b29a      	uxth	r2, r3
 8001a2e:	68fb      	ldr	r3, [r7, #12]
 8001a30:	851a      	strh	r2, [r3, #40]	; 0x28
 8001a32:	68fb      	ldr	r3, [r7, #12]
 8001a34:	8d1b      	ldrh	r3, [r3, #40]	; 0x28
 8001a36:	b2da      	uxtb	r2, r3
 8001a38:	2380      	movs	r3, #128	; 0x80
 8001a3a:	049c      	lsls	r4, r3, #18
 8001a3c:	230a      	movs	r3, #10
 8001a3e:	18fb      	adds	r3, r7, r3
 8001a40:	8819      	ldrh	r1, [r3, #0]
 8001a42:	68f8      	ldr	r0, [r7, #12]
 8001a44:	2300      	movs	r3, #0
 8001a46:	9300      	str	r3, [sp, #0]
 8001a48:	0023      	movs	r3, r4
 8001a4a:	f000 ffc9 	bl	80029e0 <I2C_TransferConfig>
 8001a4e:	68fb      	ldr	r3, [r7, #12]
 8001a50:	8d5b      	ldrh	r3, [r3, #42]	; 0x2a
 8001a52:	b29b      	uxth	r3, r3
 8001a54:	2b00      	cmp	r3, #0
 8001a56:	d194      	bne.n	8001982 <HAL_I2C_Mem_Read+0x136>
 8001a58:	697a      	ldr	r2, [r7, #20]
 8001a5a:	6b39      	ldr	r1, [r7, #48]	; 0x30
 8001a5c:	68fb      	ldr	r3, [r7, #12]
 8001a5e:	0018      	movs	r0, r3
 8001a60:	f000 ff08 	bl	8002874 <I2C_WaitOnSTOPFlagUntilTimeout>
 8001a64:	1e03      	subs	r3, r0, #0
 8001a66:	d001      	beq.n	8001a6c <HAL_I2C_Mem_Read+0x220>
 8001a68:	2301      	movs	r3, #1
 8001a6a:	e01a      	b.n	8001aa2 <HAL_I2C_Mem_Read+0x256>
 8001a6c:	68fb      	ldr	r3, [r7, #12]
 8001a6e:	681b      	ldr	r3, [r3, #0]
 8001a70:	2220      	movs	r2, #32
 8001a72:	61da      	str	r2, [r3, #28]
 8001a74:	68fb      	ldr	r3, [r7, #12]
 8001a76:	681b      	ldr	r3, [r3, #0]
 8001a78:	685a      	ldr	r2, [r3, #4]
 8001a7a:	68fb      	ldr	r3, [r7, #12]
 8001a7c:	681b      	ldr	r3, [r3, #0]
 8001a7e:	490c      	ldr	r1, [pc, #48]	; (8001ab0 <HAL_I2C_Mem_Read+0x264>)
 8001a80:	400a      	ands	r2, r1
 8001a82:	605a      	str	r2, [r3, #4]
 8001a84:	68fb      	ldr	r3, [r7, #12]
 8001a86:	2241      	movs	r2, #65	; 0x41
 8001a88:	2120      	movs	r1, #32
 8001a8a:	5499      	strb	r1, [r3, r2]
 8001a8c:	68fb      	ldr	r3, [r7, #12]
 8001a8e:	2242      	movs	r2, #66	; 0x42
 8001a90:	2100      	movs	r1, #0
 8001a92:	5499      	strb	r1, [r3, r2]
 8001a94:	68fb      	ldr	r3, [r7, #12]
 8001a96:	2240      	movs	r2, #64	; 0x40
 8001a98:	2100      	movs	r1, #0
 8001a9a:	5499      	strb	r1, [r3, r2]
 8001a9c:	2300      	movs	r3, #0
 8001a9e:	e000      	b.n	8001aa2 <HAL_I2C_Mem_Read+0x256>
 8001aa0:	2302      	movs	r3, #2
 8001aa2:	0018      	movs	r0, r3
 8001aa4:	46bd      	mov	sp, r7
 8001aa6:	b007      	add	sp, #28
 8001aa8:	bd90      	pop	{r4, r7, pc}
 8001aaa:	46c0      	nop			; (mov r8, r8)
 8001aac:	80002400 	.word	0x80002400
 8001ab0:	fe00e800 	.word	0xfe00e800

08001ab4 <HAL_I2C_EV_IRQHandler>:
 8001ab4:	b580      	push	{r7, lr}
 8001ab6:	b084      	sub	sp, #16
 8001ab8:	af00      	add	r7, sp, #0
 8001aba:	6078      	str	r0, [r7, #4]
 8001abc:	687b      	ldr	r3, [r7, #4]
 8001abe:	681b      	ldr	r3, [r3, #0]
 8001ac0:	699b      	ldr	r3, [r3, #24]
 8001ac2:	60fb      	str	r3, [r7, #12]
 8001ac4:	687b      	ldr	r3, [r7, #4]
 8001ac6:	681b      	ldr	r3, [r3, #0]
 8001ac8:	681b      	ldr	r3, [r3, #0]
 8001aca:	60bb      	str	r3, [r7, #8]
 8001acc:	687b      	ldr	r3, [r7, #4]
 8001ace:	6b5b      	ldr	r3, [r3, #52]	; 0x34
 8001ad0:	2b00      	cmp	r3, #0
 8001ad2:	d005      	beq.n	8001ae0 <HAL_I2C_EV_IRQHandler+0x2c>
 8001ad4:	687b      	ldr	r3, [r7, #4]
 8001ad6:	6b5b      	ldr	r3, [r3, #52]	; 0x34
 8001ad8:	68ba      	ldr	r2, [r7, #8]
 8001ada:	68f9      	ldr	r1, [r7, #12]
 8001adc:	6878      	ldr	r0, [r7, #4]
 8001ade:	4798      	blx	r3
 8001ae0:	46c0      	nop			; (mov r8, r8)
 8001ae2:	46bd      	mov	sp, r7
 8001ae4:	b004      	add	sp, #16
 8001ae6:	bd80      	pop	{r7, pc}

08001ae8 <HAL_I2C_ER_IRQHandler>:
 8001ae8:	b580      	push	{r7, lr}
 8001aea:	b086      	sub	sp, #24
 8001aec:	af00      	add	r7, sp, #0
 8001aee:	6078      	str	r0, [r7, #4]
 8001af0:	687b      	ldr	r3, [r7, #4]
 8001af2:	681b      	ldr	r3, [r3, #0]
 8001af4:	699b      	ldr	r3, [r3, #24]
 8001af6:	617b      	str	r3, [r7, #20]
 8001af8:	687b      	ldr	r3, [r7, #4]
 8001afa:	681b      	ldr	r3, [r3, #0]
 8001afc:	681b      	ldr	r3, [r3, #0]
 8001afe:	613b      	str	r3, [r7, #16]
 8001b00:	697b      	ldr	r3, [r7, #20]
 8001b02:	0a1b      	lsrs	r3, r3, #8
 8001b04:	001a      	movs	r2, r3
 8001b06:	2301      	movs	r3, #1
 8001b08:	4013      	ands	r3, r2
 8001b0a:	d010      	beq.n	8001b2e <HAL_I2C_ER_IRQHandler+0x46>
 8001b0c:	693b      	ldr	r3, [r7, #16]
 8001b0e:	09db      	lsrs	r3, r3, #7
 8001b10:	001a      	movs	r2, r3
 8001b12:	2301      	movs	r3, #1
 8001b14:	4013      	ands	r3, r2
 8001b16:	d00a      	beq.n	8001b2e <HAL_I2C_ER_IRQHandler+0x46>
 8001b18:	687b      	ldr	r3, [r7, #4]
 8001b1a:	6c5b      	ldr	r3, [r3, #68]	; 0x44
 8001b1c:	2201      	movs	r2, #1
 8001b1e:	431a      	orrs	r2, r3
 8001b20:	687b      	ldr	r3, [r7, #4]
 8001b22:	645a      	str	r2, [r3, #68]	; 0x44
 8001b24:	687b      	ldr	r3, [r7, #4]
 8001b26:	681b      	ldr	r3, [r3, #0]
 8001b28:	2280      	movs	r2, #128	; 0x80
 8001b2a:	0052      	lsls	r2, r2, #1
 8001b2c:	61da      	str	r2, [r3, #28]
 8001b2e:	697b      	ldr	r3, [r7, #20]
 8001b30:	0a9b      	lsrs	r3, r3, #10
 8001b32:	001a      	movs	r2, r3
 8001b34:	2301      	movs	r3, #1
 8001b36:	4013      	ands	r3, r2
 8001b38:	d010      	beq.n	8001b5c <HAL_I2C_ER_IRQHandler+0x74>
 8001b3a:	693b      	ldr	r3, [r7, #16]
 8001b3c:	09db      	lsrs	r3, r3, #7
 8001b3e:	001a      	movs	r2, r3
 8001b40:	2301      	movs	r3, #1
 8001b42:	4013      	ands	r3, r2
 8001b44:	d00a      	beq.n	8001b5c <HAL_I2C_ER_IRQHandler+0x74>
 8001b46:	687b      	ldr	r3, [r7, #4]
 8001b48:	6c5b      	ldr	r3, [r3, #68]	; 0x44
 8001b4a:	2208      	movs	r2, #8
 8001b4c:	431a      	orrs	r2, r3
 8001b4e:	687b      	ldr	r3, [r7, #4]
 8001b50:	645a      	str	r2, [r3, #68]	; 0x44
 8001b52:	687b      	ldr	r3, [r7, #4]
 8001b54:	681b      	ldr	r3, [r3, #0]
 8001b56:	2280      	movs	r2, #128	; 0x80
 8001b58:	00d2      	lsls	r2, r2, #3
 8001b5a:	61da      	str	r2, [r3, #28]
 8001b5c:	697b      	ldr	r3, [r7, #20]
 8001b5e:	0a5b      	lsrs	r3, r3, #9
 8001b60:	001a      	movs	r2, r3
 8001b62:	2301      	movs	r3, #1
 8001b64:	4013      	ands	r3, r2
 8001b66:	d010      	beq.n	8001b8a <HAL_I2C_ER_IRQHandler+0xa2>
 8001b68:	693b      	ldr	r3, [r7, #16]
 8001b6a:	09db      	lsrs	r3, r3, #7
 8001b6c:	001a      	movs	r2, r3
 8001b6e:	2301      	movs	r3, #1
 8001b70:	4013      	ands	r3, r2
 8001b72:	d00a      	beq.n	8001b8a <HAL_I2C_ER_IRQHandler+0xa2>
 8001b74:	687b      	ldr	r3, [r7, #4]
 8001b76:	6c5b      	ldr	r3, [r3, #68]	; 0x44
 8001b78:	2202      	movs	r2, #2
 8001b7a:	431a      	orrs	r2, r3
 8001b7c:	687b      	ldr	r3, [r7, #4]
 8001b7e:	645a      	str	r2, [r3, #68]	; 0x44
 8001b80:	687b      	ldr	r3, [r7, #4]
 8001b82:	681b      	ldr	r3, [r3, #0]
 8001b84:	2280      	movs	r2, #128	; 0x80
 8001b86:	0092      	lsls	r2, r2, #2
 8001b88:	61da      	str	r2, [r3, #28]
 8001b8a:	687b      	ldr	r3, [r7, #4]
 8001b8c:	6c5b      	ldr	r3, [r3, #68]	; 0x44
 8001b8e:	60fb      	str	r3, [r7, #12]
 8001b90:	68fb      	ldr	r3, [r7, #12]
 8001b92:	220b      	movs	r2, #11
 8001b94:	4013      	ands	r3, r2
 8001b96:	d005      	beq.n	8001ba4 <HAL_I2C_ER_IRQHandler+0xbc>
 8001b98:	68fa      	ldr	r2, [r7, #12]
 8001b9a:	687b      	ldr	r3, [r7, #4]
 8001b9c:	0011      	movs	r1, r2
 8001b9e:	0018      	movs	r0, r3
 8001ba0:	f000 fc9e 	bl	80024e0 <I2C_ITError>
 8001ba4:	46c0      	nop			; (mov r8, r8)
 8001ba6:	46bd      	mov	sp, r7
 8001ba8:	b006      	add	sp, #24
 8001baa:	bd80      	pop	{r7, pc}

08001bac <HAL_I2C_SlaveTxCpltCallback>:
 8001bac:	b580      	push	{r7, lr}
 8001bae:	b082      	sub	sp, #8
 8001bb0:	af00      	add	r7, sp, #0
 8001bb2:	6078      	str	r0, [r7, #4]
 8001bb4:	46c0      	nop			; (mov r8, r8)
 8001bb6:	46bd      	mov	sp, r7
 8001bb8:	b002      	add	sp, #8
 8001bba:	bd80      	pop	{r7, pc}

08001bbc <HAL_I2C_SlaveRxCpltCallback>:
 8001bbc:	b580      	push	{r7, lr}
 8001bbe:	b082      	sub	sp, #8
 8001bc0:	af00      	add	r7, sp, #0
 8001bc2:	6078      	str	r0, [r7, #4]
 8001bc4:	46c0      	nop			; (mov r8, r8)
 8001bc6:	46bd      	mov	sp, r7
 8001bc8:	b002      	add	sp, #8
 8001bca:	bd80      	pop	{r7, pc}

08001bcc <HAL_I2C_AddrCallback>:
 8001bcc:	b580      	push	{r7, lr}
 8001bce:	b082      	sub	sp, #8
 8001bd0:	af00      	add	r7, sp, #0
 8001bd2:	6078      	str	r0, [r7, #4]
 8001bd4:	0008      	movs	r0, r1
 8001bd6:	0011      	movs	r1, r2
 8001bd8:	1cfb      	adds	r3, r7, #3
 8001bda:	1c02      	adds	r2, r0, #0
 8001bdc:	701a      	strb	r2, [r3, #0]
 8001bde:	003b      	movs	r3, r7
 8001be0:	1c0a      	adds	r2, r1, #0
 8001be2:	801a      	strh	r2, [r3, #0]
 8001be4:	46c0      	nop			; (mov r8, r8)
 8001be6:	46bd      	mov	sp, r7
 8001be8:	b002      	add	sp, #8
 8001bea:	bd80      	pop	{r7, pc}

08001bec <HAL_I2C_ListenCpltCallback>:
 8001bec:	b580      	push	{r7, lr}
 8001bee:	b082      	sub	sp, #8
 8001bf0:	af00      	add	r7, sp, #0
 8001bf2:	6078      	str	r0, [r7, #4]
 8001bf4:	46c0      	nop			; (mov r8, r8)
 8001bf6:	46bd      	mov	sp, r7
 8001bf8:	b002      	add	sp, #8
 8001bfa:	bd80      	pop	{r7, pc}

08001bfc <HAL_I2C_ErrorCallback>:
 8001bfc:	b580      	push	{r7, lr}
 8001bfe:	b082      	sub	sp, #8
 8001c00:	af00      	add	r7, sp, #0
 8001c02:	6078      	str	r0, [r7, #4]
 8001c04:	46c0      	nop			; (mov r8, r8)
 8001c06:	46bd      	mov	sp, r7
 8001c08:	b002      	add	sp, #8
 8001c0a:	bd80      	pop	{r7, pc}

08001c0c <HAL_I2C_AbortCpltCallback>:
 8001c0c:	b580      	push	{r7, lr}
 8001c0e:	b082      	sub	sp, #8
 8001c10:	af00      	add	r7, sp, #0
 8001c12:	6078      	str	r0, [r7, #4]
 8001c14:	46c0      	nop			; (mov r8, r8)
 8001c16:	46bd      	mov	sp, r7
 8001c18:	b002      	add	sp, #8
 8001c1a:	bd80      	pop	{r7, pc}

08001c1c <I2C_Slave_ISR_IT>:
 8001c1c:	b580      	push	{r7, lr}
 8001c1e:	b086      	sub	sp, #24
 8001c20:	af00      	add	r7, sp, #0
 8001c22:	60f8      	str	r0, [r7, #12]
 8001c24:	60b9      	str	r1, [r7, #8]
 8001c26:	607a      	str	r2, [r7, #4]
 8001c28:	68fb      	ldr	r3, [r7, #12]
 8001c2a:	6adb      	ldr	r3, [r3, #44]	; 0x2c
 8001c2c:	617b      	str	r3, [r7, #20]
 8001c2e:	68bb      	ldr	r3, [r7, #8]
 8001c30:	613b      	str	r3, [r7, #16]
 8001c32:	68fb      	ldr	r3, [r7, #12]
 8001c34:	2240      	movs	r2, #64	; 0x40
 8001c36:	5c9b      	ldrb	r3, [r3, r2]
 8001c38:	2b01      	cmp	r3, #1
 8001c3a:	d101      	bne.n	8001c40 <I2C_Slave_ISR_IT+0x24>
 8001c3c:	2302      	movs	r3, #2
 8001c3e:	e0fa      	b.n	8001e36 <I2C_Slave_ISR_IT+0x21a>
 8001c40:	68fb      	ldr	r3, [r7, #12]
 8001c42:	2240      	movs	r2, #64	; 0x40
 8001c44:	2101      	movs	r1, #1
 8001c46:	5499      	strb	r1, [r3, r2]
 8001c48:	693b      	ldr	r3, [r7, #16]
 8001c4a:	095b      	lsrs	r3, r3, #5
 8001c4c:	001a      	movs	r2, r3
 8001c4e:	2301      	movs	r3, #1
 8001c50:	4013      	ands	r3, r2
 8001c52:	d00b      	beq.n	8001c6c <I2C_Slave_ISR_IT+0x50>
 8001c54:	687b      	ldr	r3, [r7, #4]
 8001c56:	095b      	lsrs	r3, r3, #5
 8001c58:	001a      	movs	r2, r3
 8001c5a:	2301      	movs	r3, #1
 8001c5c:	4013      	ands	r3, r2
 8001c5e:	d005      	beq.n	8001c6c <I2C_Slave_ISR_IT+0x50>
 8001c60:	693a      	ldr	r2, [r7, #16]
 8001c62:	68fb      	ldr	r3, [r7, #12]
 8001c64:	0011      	movs	r1, r2
 8001c66:	0018      	movs	r0, r3
 8001c68:	f000 fabc 	bl	80021e4 <I2C_ITSlaveCplt>
 8001c6c:	693b      	ldr	r3, [r7, #16]
 8001c6e:	091b      	lsrs	r3, r3, #4
 8001c70:	001a      	movs	r2, r3
 8001c72:	2301      	movs	r3, #1
 8001c74:	4013      	ands	r3, r2
 8001c76:	d054      	beq.n	8001d22 <I2C_Slave_ISR_IT+0x106>
 8001c78:	687b      	ldr	r3, [r7, #4]
 8001c7a:	091b      	lsrs	r3, r3, #4
 8001c7c:	001a      	movs	r2, r3
 8001c7e:	2301      	movs	r3, #1
 8001c80:	4013      	ands	r3, r2
 8001c82:	d04e      	beq.n	8001d22 <I2C_Slave_ISR_IT+0x106>
 8001c84:	68fb      	ldr	r3, [r7, #12]
 8001c86:	8d5b      	ldrh	r3, [r3, #42]	; 0x2a
 8001c88:	b29b      	uxth	r3, r3
 8001c8a:	2b00      	cmp	r3, #0
 8001c8c:	d12d      	bne.n	8001cea <I2C_Slave_ISR_IT+0xce>
 8001c8e:	68fb      	ldr	r3, [r7, #12]
 8001c90:	2241      	movs	r2, #65	; 0x41
 8001c92:	5c9b      	ldrb	r3, [r3, r2]
 8001c94:	b2db      	uxtb	r3, r3
 8001c96:	2b28      	cmp	r3, #40	; 0x28
 8001c98:	d10b      	bne.n	8001cb2 <I2C_Slave_ISR_IT+0x96>
 8001c9a:	697a      	ldr	r2, [r7, #20]
 8001c9c:	2380      	movs	r3, #128	; 0x80
 8001c9e:	049b      	lsls	r3, r3, #18
 8001ca0:	429a      	cmp	r2, r3
 8001ca2:	d106      	bne.n	8001cb2 <I2C_Slave_ISR_IT+0x96>
 8001ca4:	693a      	ldr	r2, [r7, #16]
 8001ca6:	68fb      	ldr	r3, [r7, #12]
 8001ca8:	0011      	movs	r1, r2
 8001caa:	0018      	movs	r0, r3
 8001cac:	f000 fbbe 	bl	800242c <I2C_ITListenCplt>
 8001cb0:	e036      	b.n	8001d20 <I2C_Slave_ISR_IT+0x104>
 8001cb2:	68fb      	ldr	r3, [r7, #12]
 8001cb4:	2241      	movs	r2, #65	; 0x41
 8001cb6:	5c9b      	ldrb	r3, [r3, r2]
 8001cb8:	b2db      	uxtb	r3, r3
 8001cba:	2b29      	cmp	r3, #41	; 0x29
 8001cbc:	d110      	bne.n	8001ce0 <I2C_Slave_ISR_IT+0xc4>
 8001cbe:	697b      	ldr	r3, [r7, #20]
 8001cc0:	4a5f      	ldr	r2, [pc, #380]	; (8001e40 <I2C_Slave_ISR_IT+0x224>)
 8001cc2:	4293      	cmp	r3, r2
 8001cc4:	d00c      	beq.n	8001ce0 <I2C_Slave_ISR_IT+0xc4>
 8001cc6:	68fb      	ldr	r3, [r7, #12]
 8001cc8:	681b      	ldr	r3, [r3, #0]
 8001cca:	2210      	movs	r2, #16
 8001ccc:	61da      	str	r2, [r3, #28]
 8001cce:	68fb      	ldr	r3, [r7, #12]
 8001cd0:	0018      	movs	r0, r3
 8001cd2:	f000 fd10 	bl	80026f6 <I2C_Flush_TXDR>
 8001cd6:	68fb      	ldr	r3, [r7, #12]
 8001cd8:	0018      	movs	r0, r3
 8001cda:	f000 fa1d 	bl	8002118 <I2C_ITSlaveSeqCplt>
 8001cde:	e01f      	b.n	8001d20 <I2C_Slave_ISR_IT+0x104>
 8001ce0:	68fb      	ldr	r3, [r7, #12]
 8001ce2:	681b      	ldr	r3, [r3, #0]
 8001ce4:	2210      	movs	r2, #16
 8001ce6:	61da      	str	r2, [r3, #28]
 8001ce8:	e09d      	b.n	8001e26 <I2C_Slave_ISR_IT+0x20a>
 8001cea:	68fb      	ldr	r3, [r7, #12]
 8001cec:	681b      	ldr	r3, [r3, #0]
 8001cee:	2210      	movs	r2, #16
 8001cf0:	61da      	str	r2, [r3, #28]
 8001cf2:	68fb      	ldr	r3, [r7, #12]
 8001cf4:	6c5b      	ldr	r3, [r3, #68]	; 0x44
 8001cf6:	2204      	movs	r2, #4
 8001cf8:	431a      	orrs	r2, r3
 8001cfa:	68fb      	ldr	r3, [r7, #12]
 8001cfc:	645a      	str	r2, [r3, #68]	; 0x44
 8001cfe:	697b      	ldr	r3, [r7, #20]
 8001d00:	2b00      	cmp	r3, #0
 8001d02:	d005      	beq.n	8001d10 <I2C_Slave_ISR_IT+0xf4>
 8001d04:	697a      	ldr	r2, [r7, #20]
 8001d06:	2380      	movs	r3, #128	; 0x80
 8001d08:	045b      	lsls	r3, r3, #17
 8001d0a:	429a      	cmp	r2, r3
 8001d0c:	d000      	beq.n	8001d10 <I2C_Slave_ISR_IT+0xf4>
 8001d0e:	e08a      	b.n	8001e26 <I2C_Slave_ISR_IT+0x20a>
 8001d10:	68fb      	ldr	r3, [r7, #12]
 8001d12:	6c5a      	ldr	r2, [r3, #68]	; 0x44
 8001d14:	68fb      	ldr	r3, [r7, #12]
 8001d16:	0011      	movs	r1, r2
 8001d18:	0018      	movs	r0, r3
 8001d1a:	f000 fbe1 	bl	80024e0 <I2C_ITError>
 8001d1e:	e082      	b.n	8001e26 <I2C_Slave_ISR_IT+0x20a>
 8001d20:	e081      	b.n	8001e26 <I2C_Slave_ISR_IT+0x20a>
 8001d22:	693b      	ldr	r3, [r7, #16]
 8001d24:	089b      	lsrs	r3, r3, #2
 8001d26:	001a      	movs	r2, r3
 8001d28:	2301      	movs	r3, #1
 8001d2a:	4013      	ands	r3, r2
 8001d2c:	d031      	beq.n	8001d92 <I2C_Slave_ISR_IT+0x176>
 8001d2e:	687b      	ldr	r3, [r7, #4]
 8001d30:	089b      	lsrs	r3, r3, #2
 8001d32:	001a      	movs	r2, r3
 8001d34:	2301      	movs	r3, #1
 8001d36:	4013      	ands	r3, r2
 8001d38:	d02b      	beq.n	8001d92 <I2C_Slave_ISR_IT+0x176>
 8001d3a:	68fb      	ldr	r3, [r7, #12]
 8001d3c:	8d5b      	ldrh	r3, [r3, #42]	; 0x2a
 8001d3e:	b29b      	uxth	r3, r3
 8001d40:	2b00      	cmp	r3, #0
 8001d42:	d018      	beq.n	8001d76 <I2C_Slave_ISR_IT+0x15a>
 8001d44:	68fb      	ldr	r3, [r7, #12]
 8001d46:	681b      	ldr	r3, [r3, #0]
 8001d48:	6a5a      	ldr	r2, [r3, #36]	; 0x24
 8001d4a:	68fb      	ldr	r3, [r7, #12]
 8001d4c:	6a5b      	ldr	r3, [r3, #36]	; 0x24
 8001d4e:	b2d2      	uxtb	r2, r2
 8001d50:	701a      	strb	r2, [r3, #0]
 8001d52:	68fb      	ldr	r3, [r7, #12]
 8001d54:	6a5b      	ldr	r3, [r3, #36]	; 0x24
 8001d56:	1c5a      	adds	r2, r3, #1
 8001d58:	68fb      	ldr	r3, [r7, #12]
 8001d5a:	625a      	str	r2, [r3, #36]	; 0x24
 8001d5c:	68fb      	ldr	r3, [r7, #12]
 8001d5e:	8d1b      	ldrh	r3, [r3, #40]	; 0x28
 8001d60:	3b01      	subs	r3, #1
 8001d62:	b29a      	uxth	r2, r3
 8001d64:	68fb      	ldr	r3, [r7, #12]
 8001d66:	851a      	strh	r2, [r3, #40]	; 0x28
 8001d68:	68fb      	ldr	r3, [r7, #12]
 8001d6a:	8d5b      	ldrh	r3, [r3, #42]	; 0x2a
 8001d6c:	b29b      	uxth	r3, r3
 8001d6e:	3b01      	subs	r3, #1
 8001d70:	b29a      	uxth	r2, r3
 8001d72:	68fb      	ldr	r3, [r7, #12]
 8001d74:	855a      	strh	r2, [r3, #42]	; 0x2a
 8001d76:	68fb      	ldr	r3, [r7, #12]
 8001d78:	8d5b      	ldrh	r3, [r3, #42]	; 0x2a
 8001d7a:	b29b      	uxth	r3, r3
 8001d7c:	2b00      	cmp	r3, #0
 8001d7e:	d154      	bne.n	8001e2a <I2C_Slave_ISR_IT+0x20e>
 8001d80:	697b      	ldr	r3, [r7, #20]
 8001d82:	4a2f      	ldr	r2, [pc, #188]	; (8001e40 <I2C_Slave_ISR_IT+0x224>)
 8001d84:	4293      	cmp	r3, r2
 8001d86:	d050      	beq.n	8001e2a <I2C_Slave_ISR_IT+0x20e>
 8001d88:	68fb      	ldr	r3, [r7, #12]
 8001d8a:	0018      	movs	r0, r3
 8001d8c:	f000 f9c4 	bl	8002118 <I2C_ITSlaveSeqCplt>
 8001d90:	e04b      	b.n	8001e2a <I2C_Slave_ISR_IT+0x20e>
 8001d92:	693b      	ldr	r3, [r7, #16]
 8001d94:	08db      	lsrs	r3, r3, #3
 8001d96:	001a      	movs	r2, r3
 8001d98:	2301      	movs	r3, #1
 8001d9a:	4013      	ands	r3, r2
 8001d9c:	d00c      	beq.n	8001db8 <I2C_Slave_ISR_IT+0x19c>
 8001d9e:	687b      	ldr	r3, [r7, #4]
 8001da0:	08db      	lsrs	r3, r3, #3
 8001da2:	001a      	movs	r2, r3
 8001da4:	2301      	movs	r3, #1
 8001da6:	4013      	ands	r3, r2
 8001da8:	d006      	beq.n	8001db8 <I2C_Slave_ISR_IT+0x19c>
 8001daa:	693a      	ldr	r2, [r7, #16]
 8001dac:	68fb      	ldr	r3, [r7, #12]
 8001dae:	0011      	movs	r1, r2
 8001db0:	0018      	movs	r0, r3
 8001db2:	f000 f90d 	bl	8001fd0 <I2C_ITAddrCplt>
 8001db6:	e039      	b.n	8001e2c <I2C_Slave_ISR_IT+0x210>
 8001db8:	693b      	ldr	r3, [r7, #16]
 8001dba:	085b      	lsrs	r3, r3, #1
 8001dbc:	001a      	movs	r2, r3
 8001dbe:	2301      	movs	r3, #1
 8001dc0:	4013      	ands	r3, r2
 8001dc2:	d033      	beq.n	8001e2c <I2C_Slave_ISR_IT+0x210>
 8001dc4:	687b      	ldr	r3, [r7, #4]
 8001dc6:	085b      	lsrs	r3, r3, #1
 8001dc8:	001a      	movs	r2, r3
 8001dca:	2301      	movs	r3, #1
 8001dcc:	4013      	ands	r3, r2
 8001dce:	d02d      	beq.n	8001e2c <I2C_Slave_ISR_IT+0x210>
 8001dd0:	68fb      	ldr	r3, [r7, #12]
 8001dd2:	8d5b      	ldrh	r3, [r3, #42]	; 0x2a
 8001dd4:	b29b      	uxth	r3, r3
 8001dd6:	2b00      	cmp	r3, #0
 8001dd8:	d018      	beq.n	8001e0c <I2C_Slave_ISR_IT+0x1f0>
 8001dda:	68fb      	ldr	r3, [r7, #12]
 8001ddc:	6a5b      	ldr	r3, [r3, #36]	; 0x24
 8001dde:	781a      	ldrb	r2, [r3, #0]
 8001de0:	68fb      	ldr	r3, [r7, #12]
 8001de2:	681b      	ldr	r3, [r3, #0]
 8001de4:	629a      	str	r2, [r3, #40]	; 0x28
 8001de6:	68fb      	ldr	r3, [r7, #12]
 8001de8:	6a5b      	ldr	r3, [r3, #36]	; 0x24
 8001dea:	1c5a      	adds	r2, r3, #1
 8001dec:	68fb      	ldr	r3, [r7, #12]
 8001dee:	625a      	str	r2, [r3, #36]	; 0x24
 8001df0:	68fb      	ldr	r3, [r7, #12]
 8001df2:	8d5b      	ldrh	r3, [r3, #42]	; 0x2a
 8001df4:	b29b      	uxth	r3, r3
 8001df6:	3b01      	subs	r3, #1
 8001df8:	b29a      	uxth	r2, r3
 8001dfa:	68fb      	ldr	r3, [r7, #12]
 8001dfc:	855a      	strh	r2, [r3, #42]	; 0x2a
 8001dfe:	68fb      	ldr	r3, [r7, #12]
 8001e00:	8d1b      	ldrh	r3, [r3, #40]	; 0x28
 8001e02:	3b01      	subs	r3, #1
 8001e04:	b29a      	uxth	r2, r3
 8001e06:	68fb      	ldr	r3, [r7, #12]
 8001e08:	851a      	strh	r2, [r3, #40]	; 0x28
 8001e0a:	e00f      	b.n	8001e2c <I2C_Slave_ISR_IT+0x210>
 8001e0c:	697a      	ldr	r2, [r7, #20]
 8001e0e:	2380      	movs	r3, #128	; 0x80
 8001e10:	045b      	lsls	r3, r3, #17
 8001e12:	429a      	cmp	r2, r3
 8001e14:	d002      	beq.n	8001e1c <I2C_Slave_ISR_IT+0x200>
 8001e16:	697b      	ldr	r3, [r7, #20]
 8001e18:	2b00      	cmp	r3, #0
 8001e1a:	d107      	bne.n	8001e2c <I2C_Slave_ISR_IT+0x210>
 8001e1c:	68fb      	ldr	r3, [r7, #12]
 8001e1e:	0018      	movs	r0, r3
 8001e20:	f000 f97a 	bl	8002118 <I2C_ITSlaveSeqCplt>
 8001e24:	e002      	b.n	8001e2c <I2C_Slave_ISR_IT+0x210>
 8001e26:	46c0      	nop			; (mov r8, r8)
 8001e28:	e000      	b.n	8001e2c <I2C_Slave_ISR_IT+0x210>
 8001e2a:	46c0      	nop			; (mov r8, r8)
 8001e2c:	68fb      	ldr	r3, [r7, #12]
 8001e2e:	2240      	movs	r2, #64	; 0x40
 8001e30:	2100      	movs	r1, #0
 8001e32:	5499      	strb	r1, [r3, r2]
 8001e34:	2300      	movs	r3, #0
 8001e36:	0018      	movs	r0, r3
 8001e38:	46bd      	mov	sp, r7
 8001e3a:	b006      	add	sp, #24
 8001e3c:	bd80      	pop	{r7, pc}
 8001e3e:	46c0      	nop			; (mov r8, r8)
 8001e40:	ffff0000 	.word	0xffff0000

08001e44 <I2C_RequestMemoryWrite>:
 8001e44:	b5b0      	push	{r4, r5, r7, lr}
 8001e46:	b086      	sub	sp, #24
 8001e48:	af02      	add	r7, sp, #8
 8001e4a:	60f8      	str	r0, [r7, #12]
 8001e4c:	000c      	movs	r4, r1
 8001e4e:	0010      	movs	r0, r2
 8001e50:	0019      	movs	r1, r3
 8001e52:	250a      	movs	r5, #10
 8001e54:	197b      	adds	r3, r7, r5
 8001e56:	1c22      	adds	r2, r4, #0
 8001e58:	801a      	strh	r2, [r3, #0]
 8001e5a:	2308      	movs	r3, #8
 8001e5c:	18fb      	adds	r3, r7, r3
 8001e5e:	1c02      	adds	r2, r0, #0
 8001e60:	801a      	strh	r2, [r3, #0]
 8001e62:	1dbb      	adds	r3, r7, #6
 8001e64:	1c0a      	adds	r2, r1, #0
 8001e66:	801a      	strh	r2, [r3, #0]
 8001e68:	1dbb      	adds	r3, r7, #6
 8001e6a:	881b      	ldrh	r3, [r3, #0]
 8001e6c:	b2da      	uxtb	r2, r3
 8001e6e:	2380      	movs	r3, #128	; 0x80
 8001e70:	045c      	lsls	r4, r3, #17
 8001e72:	197b      	adds	r3, r7, r5
 8001e74:	8819      	ldrh	r1, [r3, #0]
 8001e76:	68f8      	ldr	r0, [r7, #12]
 8001e78:	4b23      	ldr	r3, [pc, #140]	; (8001f08 <I2C_RequestMemoryWrite+0xc4>)
 8001e7a:	9300      	str	r3, [sp, #0]
 8001e7c:	0023      	movs	r3, r4
 8001e7e:	f000 fdaf 	bl	80029e0 <I2C_TransferConfig>
 8001e82:	6a7a      	ldr	r2, [r7, #36]	; 0x24
 8001e84:	6a39      	ldr	r1, [r7, #32]
 8001e86:	68fb      	ldr	r3, [r7, #12]
 8001e88:	0018      	movs	r0, r3
 8001e8a:	f000 fcb4 	bl	80027f6 <I2C_WaitOnTXISFlagUntilTimeout>
 8001e8e:	1e03      	subs	r3, r0, #0
 8001e90:	d001      	beq.n	8001e96 <I2C_RequestMemoryWrite+0x52>
 8001e92:	2301      	movs	r3, #1
 8001e94:	e033      	b.n	8001efe <I2C_RequestMemoryWrite+0xba>
 8001e96:	1dbb      	adds	r3, r7, #6
 8001e98:	881b      	ldrh	r3, [r3, #0]
 8001e9a:	2b01      	cmp	r3, #1
 8001e9c:	d107      	bne.n	8001eae <I2C_RequestMemoryWrite+0x6a>
 8001e9e:	2308      	movs	r3, #8
 8001ea0:	18fb      	adds	r3, r7, r3
 8001ea2:	881b      	ldrh	r3, [r3, #0]
 8001ea4:	b2da      	uxtb	r2, r3
 8001ea6:	68fb      	ldr	r3, [r7, #12]
 8001ea8:	681b      	ldr	r3, [r3, #0]
 8001eaa:	629a      	str	r2, [r3, #40]	; 0x28
 8001eac:	e019      	b.n	8001ee2 <I2C_RequestMemoryWrite+0x9e>
 8001eae:	2308      	movs	r3, #8
 8001eb0:	18fb      	adds	r3, r7, r3
 8001eb2:	881b      	ldrh	r3, [r3, #0]
 8001eb4:	0a1b      	lsrs	r3, r3, #8
 8001eb6:	b29b      	uxth	r3, r3
 8001eb8:	b2da      	uxtb	r2, r3
 8001eba:	68fb      	ldr	r3, [r7, #12]
 8001ebc:	681b      	ldr	r3, [r3, #0]
 8001ebe:	629a      	str	r2, [r3, #40]	; 0x28
 8001ec0:	6a7a      	ldr	r2, [r7, #36]	; 0x24
 8001ec2:	6a39      	ldr	r1, [r7, #32]
 8001ec4:	68fb      	ldr	r3, [r7, #12]
 8001ec6:	0018      	movs	r0, r3
 8001ec8:	f000 fc95 	bl	80027f6 <I2C_WaitOnTXISFlagUntilTimeout>
 8001ecc:	1e03      	subs	r3, r0, #0
 8001ece:	d001      	beq.n	8001ed4 <I2C_RequestMemoryWrite+0x90>
 8001ed0:	2301      	movs	r3, #1
 8001ed2:	e014      	b.n	8001efe <I2C_RequestMemoryWrite+0xba>
 8001ed4:	2308      	movs	r3, #8
 8001ed6:	18fb      	adds	r3, r7, r3
 8001ed8:	881b      	ldrh	r3, [r3, #0]
 8001eda:	b2da      	uxtb	r2, r3
 8001edc:	68fb      	ldr	r3, [r7, #12]
 8001ede:	681b      	ldr	r3, [r3, #0]
 8001ee0:	629a      	str	r2, [r3, #40]	; 0x28
 8001ee2:	6a3a      	ldr	r2, [r7, #32]
 8001ee4:	68f8      	ldr	r0, [r7, #12]
 8001ee6:	6a7b      	ldr	r3, [r7, #36]	; 0x24
 8001ee8:	9300      	str	r3, [sp, #0]
 8001eea:	0013      	movs	r3, r2
 8001eec:	2200      	movs	r2, #0
 8001eee:	2180      	movs	r1, #128	; 0x80
 8001ef0:	f000 fc42 	bl	8002778 <I2C_WaitOnFlagUntilTimeout>
 8001ef4:	1e03      	subs	r3, r0, #0
 8001ef6:	d001      	beq.n	8001efc <I2C_RequestMemoryWrite+0xb8>
 8001ef8:	2301      	movs	r3, #1
 8001efa:	e000      	b.n	8001efe <I2C_RequestMemoryWrite+0xba>
 8001efc:	2300      	movs	r3, #0
 8001efe:	0018      	movs	r0, r3
 8001f00:	46bd      	mov	sp, r7
 8001f02:	b004      	add	sp, #16
 8001f04:	bdb0      	pop	{r4, r5, r7, pc}
 8001f06:	46c0      	nop			; (mov r8, r8)
 8001f08:	80002000 	.word	0x80002000

08001f0c <I2C_RequestMemoryRead>:
 8001f0c:	b5b0      	push	{r4, r5, r7, lr}
 8001f0e:	b086      	sub	sp, #24
 8001f10:	af02      	add	r7, sp, #8
 8001f12:	60f8      	str	r0, [r7, #12]
 8001f14:	000c      	movs	r4, r1
 8001f16:	0010      	movs	r0, r2
 8001f18:	0019      	movs	r1, r3
 8001f1a:	250a      	movs	r5, #10
 8001f1c:	197b      	adds	r3, r7, r5
 8001f1e:	1c22      	adds	r2, r4, #0
 8001f20:	801a      	strh	r2, [r3, #0]
 8001f22:	2308      	movs	r3, #8
 8001f24:	18fb      	adds	r3, r7, r3
 8001f26:	1c02      	adds	r2, r0, #0
 8001f28:	801a      	strh	r2, [r3, #0]
 8001f2a:	1dbb      	adds	r3, r7, #6
 8001f2c:	1c0a      	adds	r2, r1, #0
 8001f2e:	801a      	strh	r2, [r3, #0]
 8001f30:	1dbb      	adds	r3, r7, #6
 8001f32:	881b      	ldrh	r3, [r3, #0]
 8001f34:	b2da      	uxtb	r2, r3
 8001f36:	197b      	adds	r3, r7, r5
 8001f38:	8819      	ldrh	r1, [r3, #0]
 8001f3a:	68f8      	ldr	r0, [r7, #12]
 8001f3c:	4b23      	ldr	r3, [pc, #140]	; (8001fcc <I2C_RequestMemoryRead+0xc0>)
 8001f3e:	9300      	str	r3, [sp, #0]
 8001f40:	2300      	movs	r3, #0
 8001f42:	f000 fd4d 	bl	80029e0 <I2C_TransferConfig>
 8001f46:	6a7a      	ldr	r2, [r7, #36]	; 0x24
 8001f48:	6a39      	ldr	r1, [r7, #32]
 8001f4a:	68fb      	ldr	r3, [r7, #12]
 8001f4c:	0018      	movs	r0, r3
 8001f4e:	f000 fc52 	bl	80027f6 <I2C_WaitOnTXISFlagUntilTimeout>
 8001f52:	1e03      	subs	r3, r0, #0
 8001f54:	d001      	beq.n	8001f5a <I2C_RequestMemoryRead+0x4e>
 8001f56:	2301      	movs	r3, #1
 8001f58:	e033      	b.n	8001fc2 <I2C_RequestMemoryRead+0xb6>
 8001f5a:	1dbb      	adds	r3, r7, #6
 8001f5c:	881b      	ldrh	r3, [r3, #0]
 8001f5e:	2b01      	cmp	r3, #1
 8001f60:	d107      	bne.n	8001f72 <I2C_RequestMemoryRead+0x66>
 8001f62:	2308      	movs	r3, #8
 8001f64:	18fb      	adds	r3, r7, r3
 8001f66:	881b      	ldrh	r3, [r3, #0]
 8001f68:	b2da      	uxtb	r2, r3
 8001f6a:	68fb      	ldr	r3, [r7, #12]
 8001f6c:	681b      	ldr	r3, [r3, #0]
 8001f6e:	629a      	str	r2, [r3, #40]	; 0x28
 8001f70:	e019      	b.n	8001fa6 <I2C_RequestMemoryRead+0x9a>
 8001f72:	2308      	movs	r3, #8
 8001f74:	18fb      	adds	r3, r7, r3
 8001f76:	881b      	ldrh	r3, [r3, #0]
 8001f78:	0a1b      	lsrs	r3, r3, #8
 8001f7a:	b29b      	uxth	r3, r3
 8001f7c:	b2da      	uxtb	r2, r3
 8001f7e:	68fb      	ldr	r3, [r7, #12]
 8001f80:	681b      	ldr	r3, [r3, #0]
 8001f82:	629a      	str	r2, [r3, #40]	; 0x28
 8001f84:	6a7a      	ldr	r2, [r7, #36]	; 0x24
 8001f86:	6a39      	ldr	r1, [r7, #32]
 8001f88:	68fb      	ldr	r3, [r7, #12]
 8001f8a:	0018      	movs	r0, r3
 8001f8c:	f000 fc33 	bl	80027f6 <I2C_WaitOnTXISFlagUntilTimeout>
 8001f90:	1e03      	subs	r3, r0, #0
 8001f92:	d001      	beq.n	8001f98 <I2C_RequestMemoryRead+0x8c>
 8001f94:	2301      	movs	r3, #1
 8001f96:	e014      	b.n	8001fc2 <I2C_RequestMemoryRead+0xb6>
 8001f98:	2308      	movs	r3, #8
 8001f9a:	18fb      	adds	r3, r7, r3
 8001f9c:	881b      	ldrh	r3, [r3, #0]
 8001f9e:	b2da      	uxtb	r2, r3
 8001fa0:	68fb      	ldr	r3, [r7, #12]
 8001fa2:	681b      	ldr	r3, [r3, #0]
 8001fa4:	629a      	str	r2, [r3, #40]	; 0x28
 8001fa6:	6a3a      	ldr	r2, [r7, #32]
 8001fa8:	68f8      	ldr	r0, [r7, #12]
 8001faa:	6a7b      	ldr	r3, [r7, #36]	; 0x24
 8001fac:	9300      	str	r3, [sp, #0]
 8001fae:	0013      	movs	r3, r2
 8001fb0:	2200      	movs	r2, #0
 8001fb2:	2140      	movs	r1, #64	; 0x40
 8001fb4:	f000 fbe0 	bl	8002778 <I2C_WaitOnFlagUntilTimeout>
 8001fb8:	1e03      	subs	r3, r0, #0
 8001fba:	d001      	beq.n	8001fc0 <I2C_RequestMemoryRead+0xb4>
 8001fbc:	2301      	movs	r3, #1
 8001fbe:	e000      	b.n	8001fc2 <I2C_RequestMemoryRead+0xb6>
 8001fc0:	2300      	movs	r3, #0
 8001fc2:	0018      	movs	r0, r3
 8001fc4:	46bd      	mov	sp, r7
 8001fc6:	b004      	add	sp, #16
 8001fc8:	bdb0      	pop	{r4, r5, r7, pc}
 8001fca:	46c0      	nop			; (mov r8, r8)
 8001fcc:	80002000 	.word	0x80002000

08001fd0 <I2C_ITAddrCplt>:
 8001fd0:	b5b0      	push	{r4, r5, r7, lr}
 8001fd2:	b084      	sub	sp, #16
 8001fd4:	af00      	add	r7, sp, #0
 8001fd6:	6078      	str	r0, [r7, #4]
 8001fd8:	6039      	str	r1, [r7, #0]
 8001fda:	687b      	ldr	r3, [r7, #4]
 8001fdc:	2241      	movs	r2, #65	; 0x41
 8001fde:	5c9b      	ldrb	r3, [r3, r2]
 8001fe0:	b2db      	uxtb	r3, r3
 8001fe2:	001a      	movs	r2, r3
 8001fe4:	2328      	movs	r3, #40	; 0x28
 8001fe6:	4013      	ands	r3, r2
 8001fe8:	2b28      	cmp	r3, #40	; 0x28
 8001fea:	d000      	beq.n	8001fee <I2C_ITAddrCplt+0x1e>
 8001fec:	e088      	b.n	8002100 <I2C_ITAddrCplt+0x130>
 8001fee:	687b      	ldr	r3, [r7, #4]
 8001ff0:	681b      	ldr	r3, [r3, #0]
 8001ff2:	699b      	ldr	r3, [r3, #24]
 8001ff4:	0c1b      	lsrs	r3, r3, #16
 8001ff6:	b2da      	uxtb	r2, r3
 8001ff8:	250f      	movs	r5, #15
 8001ffa:	197b      	adds	r3, r7, r5
 8001ffc:	2101      	movs	r1, #1
 8001ffe:	400a      	ands	r2, r1
 8002000:	701a      	strb	r2, [r3, #0]
 8002002:	687b      	ldr	r3, [r7, #4]
 8002004:	681b      	ldr	r3, [r3, #0]
 8002006:	699b      	ldr	r3, [r3, #24]
 8002008:	0c1b      	lsrs	r3, r3, #16
 800200a:	b29a      	uxth	r2, r3
 800200c:	200c      	movs	r0, #12
 800200e:	183b      	adds	r3, r7, r0
 8002010:	21fe      	movs	r1, #254	; 0xfe
 8002012:	400a      	ands	r2, r1
 8002014:	801a      	strh	r2, [r3, #0]
 8002016:	687b      	ldr	r3, [r7, #4]
 8002018:	681b      	ldr	r3, [r3, #0]
 800201a:	689b      	ldr	r3, [r3, #8]
 800201c:	b29a      	uxth	r2, r3
 800201e:	240a      	movs	r4, #10
 8002020:	193b      	adds	r3, r7, r4
 8002022:	0592      	lsls	r2, r2, #22
 8002024:	0d92      	lsrs	r2, r2, #22
 8002026:	801a      	strh	r2, [r3, #0]
 8002028:	687b      	ldr	r3, [r7, #4]
 800202a:	681b      	ldr	r3, [r3, #0]
 800202c:	68db      	ldr	r3, [r3, #12]
 800202e:	b29a      	uxth	r2, r3
 8002030:	2308      	movs	r3, #8
 8002032:	18fb      	adds	r3, r7, r3
 8002034:	21fe      	movs	r1, #254	; 0xfe
 8002036:	400a      	ands	r2, r1
 8002038:	801a      	strh	r2, [r3, #0]
 800203a:	687b      	ldr	r3, [r7, #4]
 800203c:	68db      	ldr	r3, [r3, #12]
 800203e:	2b02      	cmp	r3, #2
 8002040:	d148      	bne.n	80020d4 <I2C_ITAddrCplt+0x104>
 8002042:	0021      	movs	r1, r4
 8002044:	187b      	adds	r3, r7, r1
 8002046:	881b      	ldrh	r3, [r3, #0]
 8002048:	09db      	lsrs	r3, r3, #7
 800204a:	b29a      	uxth	r2, r3
 800204c:	183b      	adds	r3, r7, r0
 800204e:	881b      	ldrh	r3, [r3, #0]
 8002050:	4053      	eors	r3, r2
 8002052:	b29b      	uxth	r3, r3
 8002054:	001a      	movs	r2, r3
 8002056:	2306      	movs	r3, #6
 8002058:	4013      	ands	r3, r2
 800205a:	d120      	bne.n	800209e <I2C_ITAddrCplt+0xce>
 800205c:	183b      	adds	r3, r7, r0
 800205e:	187a      	adds	r2, r7, r1
 8002060:	8812      	ldrh	r2, [r2, #0]
 8002062:	801a      	strh	r2, [r3, #0]
 8002064:	687b      	ldr	r3, [r7, #4]
 8002066:	6c9b      	ldr	r3, [r3, #72]	; 0x48
 8002068:	1c5a      	adds	r2, r3, #1
 800206a:	687b      	ldr	r3, [r7, #4]
 800206c:	649a      	str	r2, [r3, #72]	; 0x48
 800206e:	687b      	ldr	r3, [r7, #4]
 8002070:	6c9b      	ldr	r3, [r3, #72]	; 0x48
 8002072:	2b02      	cmp	r3, #2
 8002074:	d14c      	bne.n	8002110 <I2C_ITAddrCplt+0x140>
 8002076:	687b      	ldr	r3, [r7, #4]
 8002078:	2200      	movs	r2, #0
 800207a:	649a      	str	r2, [r3, #72]	; 0x48
 800207c:	687b      	ldr	r3, [r7, #4]
 800207e:	681b      	ldr	r3, [r3, #0]
 8002080:	2208      	movs	r2, #8
 8002082:	61da      	str	r2, [r3, #28]
 8002084:	687b      	ldr	r3, [r7, #4]
 8002086:	2240      	movs	r2, #64	; 0x40
 8002088:	2100      	movs	r1, #0
 800208a:	5499      	strb	r1, [r3, r2]
 800208c:	183b      	adds	r3, r7, r0
 800208e:	881a      	ldrh	r2, [r3, #0]
 8002090:	197b      	adds	r3, r7, r5
 8002092:	7819      	ldrb	r1, [r3, #0]
 8002094:	687b      	ldr	r3, [r7, #4]
 8002096:	0018      	movs	r0, r3
 8002098:	f7ff fd98 	bl	8001bcc <HAL_I2C_AddrCallback>
 800209c:	e038      	b.n	8002110 <I2C_ITAddrCplt+0x140>
 800209e:	240c      	movs	r4, #12
 80020a0:	193b      	adds	r3, r7, r4
 80020a2:	2208      	movs	r2, #8
 80020a4:	18ba      	adds	r2, r7, r2
 80020a6:	8812      	ldrh	r2, [r2, #0]
 80020a8:	801a      	strh	r2, [r3, #0]
 80020aa:	2380      	movs	r3, #128	; 0x80
 80020ac:	021a      	lsls	r2, r3, #8
 80020ae:	687b      	ldr	r3, [r7, #4]
 80020b0:	0011      	movs	r1, r2
 80020b2:	0018      	movs	r0, r3
 80020b4:	f000 fcca 	bl	8002a4c <I2C_Disable_IRQ>
 80020b8:	687b      	ldr	r3, [r7, #4]
 80020ba:	2240      	movs	r2, #64	; 0x40
 80020bc:	2100      	movs	r1, #0
 80020be:	5499      	strb	r1, [r3, r2]
 80020c0:	193b      	adds	r3, r7, r4
 80020c2:	881a      	ldrh	r2, [r3, #0]
 80020c4:	230f      	movs	r3, #15
 80020c6:	18fb      	adds	r3, r7, r3
 80020c8:	7819      	ldrb	r1, [r3, #0]
 80020ca:	687b      	ldr	r3, [r7, #4]
 80020cc:	0018      	movs	r0, r3
 80020ce:	f7ff fd7d 	bl	8001bcc <HAL_I2C_AddrCallback>
 80020d2:	e01d      	b.n	8002110 <I2C_ITAddrCplt+0x140>
 80020d4:	2380      	movs	r3, #128	; 0x80
 80020d6:	021a      	lsls	r2, r3, #8
 80020d8:	687b      	ldr	r3, [r7, #4]
 80020da:	0011      	movs	r1, r2
 80020dc:	0018      	movs	r0, r3
 80020de:	f000 fcb5 	bl	8002a4c <I2C_Disable_IRQ>
 80020e2:	687b      	ldr	r3, [r7, #4]
 80020e4:	2240      	movs	r2, #64	; 0x40
 80020e6:	2100      	movs	r1, #0
 80020e8:	5499      	strb	r1, [r3, r2]
 80020ea:	230c      	movs	r3, #12
 80020ec:	18fb      	adds	r3, r7, r3
 80020ee:	881a      	ldrh	r2, [r3, #0]
 80020f0:	230f      	movs	r3, #15
 80020f2:	18fb      	adds	r3, r7, r3
 80020f4:	7819      	ldrb	r1, [r3, #0]
 80020f6:	687b      	ldr	r3, [r7, #4]
 80020f8:	0018      	movs	r0, r3
 80020fa:	f7ff fd67 	bl	8001bcc <HAL_I2C_AddrCallback>
 80020fe:	e007      	b.n	8002110 <I2C_ITAddrCplt+0x140>
 8002100:	687b      	ldr	r3, [r7, #4]
 8002102:	681b      	ldr	r3, [r3, #0]
 8002104:	2208      	movs	r2, #8
 8002106:	61da      	str	r2, [r3, #28]
 8002108:	687b      	ldr	r3, [r7, #4]
 800210a:	2240      	movs	r2, #64	; 0x40
 800210c:	2100      	movs	r1, #0
 800210e:	5499      	strb	r1, [r3, r2]
 8002110:	46c0      	nop			; (mov r8, r8)
 8002112:	46bd      	mov	sp, r7
 8002114:	b004      	add	sp, #16
 8002116:	bdb0      	pop	{r4, r5, r7, pc}

08002118 <I2C_ITSlaveSeqCplt>:
 8002118:	b580      	push	{r7, lr}
 800211a:	b084      	sub	sp, #16
 800211c:	af00      	add	r7, sp, #0
 800211e:	6078      	str	r0, [r7, #4]
 8002120:	687b      	ldr	r3, [r7, #4]
 8002122:	681b      	ldr	r3, [r3, #0]
 8002124:	681b      	ldr	r3, [r3, #0]
 8002126:	60fb      	str	r3, [r7, #12]
 8002128:	687b      	ldr	r3, [r7, #4]
 800212a:	2242      	movs	r2, #66	; 0x42
 800212c:	2100      	movs	r1, #0
 800212e:	5499      	strb	r1, [r3, r2]
 8002130:	68fb      	ldr	r3, [r7, #12]
 8002132:	0b9b      	lsrs	r3, r3, #14
 8002134:	001a      	movs	r2, r3
 8002136:	2301      	movs	r3, #1
 8002138:	4013      	ands	r3, r2
 800213a:	d008      	beq.n	800214e <I2C_ITSlaveSeqCplt+0x36>
 800213c:	687b      	ldr	r3, [r7, #4]
 800213e:	681b      	ldr	r3, [r3, #0]
 8002140:	681a      	ldr	r2, [r3, #0]
 8002142:	687b      	ldr	r3, [r7, #4]
 8002144:	681b      	ldr	r3, [r3, #0]
 8002146:	4925      	ldr	r1, [pc, #148]	; (80021dc <I2C_ITSlaveSeqCplt+0xc4>)
 8002148:	400a      	ands	r2, r1
 800214a:	601a      	str	r2, [r3, #0]
 800214c:	e00d      	b.n	800216a <I2C_ITSlaveSeqCplt+0x52>
 800214e:	68fb      	ldr	r3, [r7, #12]
 8002150:	0bdb      	lsrs	r3, r3, #15
 8002152:	001a      	movs	r2, r3
 8002154:	2301      	movs	r3, #1
 8002156:	4013      	ands	r3, r2
 8002158:	d007      	beq.n	800216a <I2C_ITSlaveSeqCplt+0x52>
 800215a:	687b      	ldr	r3, [r7, #4]
 800215c:	681b      	ldr	r3, [r3, #0]
 800215e:	681a      	ldr	r2, [r3, #0]
 8002160:	687b      	ldr	r3, [r7, #4]
 8002162:	681b      	ldr	r3, [r3, #0]
 8002164:	491e      	ldr	r1, [pc, #120]	; (80021e0 <I2C_ITSlaveSeqCplt+0xc8>)
 8002166:	400a      	ands	r2, r1
 8002168:	601a      	str	r2, [r3, #0]
 800216a:	687b      	ldr	r3, [r7, #4]
 800216c:	2241      	movs	r2, #65	; 0x41
 800216e:	5c9b      	ldrb	r3, [r3, r2]
 8002170:	b2db      	uxtb	r3, r3
 8002172:	2b29      	cmp	r3, #41	; 0x29
 8002174:	d114      	bne.n	80021a0 <I2C_ITSlaveSeqCplt+0x88>
 8002176:	687b      	ldr	r3, [r7, #4]
 8002178:	2241      	movs	r2, #65	; 0x41
 800217a:	2128      	movs	r1, #40	; 0x28
 800217c:	5499      	strb	r1, [r3, r2]
 800217e:	687b      	ldr	r3, [r7, #4]
 8002180:	2221      	movs	r2, #33	; 0x21
 8002182:	631a      	str	r2, [r3, #48]	; 0x30
 8002184:	687b      	ldr	r3, [r7, #4]
 8002186:	2101      	movs	r1, #1
 8002188:	0018      	movs	r0, r3
 800218a:	f000 fc5f 	bl	8002a4c <I2C_Disable_IRQ>
 800218e:	687b      	ldr	r3, [r7, #4]
 8002190:	2240      	movs	r2, #64	; 0x40
 8002192:	2100      	movs	r1, #0
 8002194:	5499      	strb	r1, [r3, r2]
 8002196:	687b      	ldr	r3, [r7, #4]
 8002198:	0018      	movs	r0, r3
 800219a:	f7ff fd07 	bl	8001bac <HAL_I2C_SlaveTxCpltCallback>
 800219e:	e019      	b.n	80021d4 <I2C_ITSlaveSeqCplt+0xbc>
 80021a0:	687b      	ldr	r3, [r7, #4]
 80021a2:	2241      	movs	r2, #65	; 0x41
 80021a4:	5c9b      	ldrb	r3, [r3, r2]
 80021a6:	b2db      	uxtb	r3, r3
 80021a8:	2b2a      	cmp	r3, #42	; 0x2a
 80021aa:	d113      	bne.n	80021d4 <I2C_ITSlaveSeqCplt+0xbc>
 80021ac:	687b      	ldr	r3, [r7, #4]
 80021ae:	2241      	movs	r2, #65	; 0x41
 80021b0:	2128      	movs	r1, #40	; 0x28
 80021b2:	5499      	strb	r1, [r3, r2]
 80021b4:	687b      	ldr	r3, [r7, #4]
 80021b6:	2222      	movs	r2, #34	; 0x22
 80021b8:	631a      	str	r2, [r3, #48]	; 0x30
 80021ba:	687b      	ldr	r3, [r7, #4]
 80021bc:	2102      	movs	r1, #2
 80021be:	0018      	movs	r0, r3
 80021c0:	f000 fc44 	bl	8002a4c <I2C_Disable_IRQ>
 80021c4:	687b      	ldr	r3, [r7, #4]
 80021c6:	2240      	movs	r2, #64	; 0x40
 80021c8:	2100      	movs	r1, #0
 80021ca:	5499      	strb	r1, [r3, r2]
 80021cc:	687b      	ldr	r3, [r7, #4]
 80021ce:	0018      	movs	r0, r3
 80021d0:	f7ff fcf4 	bl	8001bbc <HAL_I2C_SlaveRxCpltCallback>
 80021d4:	46c0      	nop			; (mov r8, r8)
 80021d6:	46bd      	mov	sp, r7
 80021d8:	b004      	add	sp, #16
 80021da:	bd80      	pop	{r7, pc}
 80021dc:	ffffbfff 	.word	0xffffbfff
 80021e0:	ffff7fff 	.word	0xffff7fff

080021e4 <I2C_ITSlaveCplt>:
 80021e4:	b580      	push	{r7, lr}
 80021e6:	b086      	sub	sp, #24
 80021e8:	af00      	add	r7, sp, #0
 80021ea:	6078      	str	r0, [r7, #4]
 80021ec:	6039      	str	r1, [r7, #0]
 80021ee:	687b      	ldr	r3, [r7, #4]
 80021f0:	681b      	ldr	r3, [r3, #0]
 80021f2:	681b      	ldr	r3, [r3, #0]
 80021f4:	613b      	str	r3, [r7, #16]
 80021f6:	683b      	ldr	r3, [r7, #0]
 80021f8:	617b      	str	r3, [r7, #20]
 80021fa:	200f      	movs	r0, #15
 80021fc:	183b      	adds	r3, r7, r0
 80021fe:	687a      	ldr	r2, [r7, #4]
 8002200:	2141      	movs	r1, #65	; 0x41
 8002202:	5c52      	ldrb	r2, [r2, r1]
 8002204:	701a      	strb	r2, [r3, #0]
 8002206:	687b      	ldr	r3, [r7, #4]
 8002208:	681b      	ldr	r3, [r3, #0]
 800220a:	2220      	movs	r2, #32
 800220c:	61da      	str	r2, [r3, #28]
 800220e:	183b      	adds	r3, r7, r0
 8002210:	781b      	ldrb	r3, [r3, #0]
 8002212:	2b21      	cmp	r3, #33	; 0x21
 8002214:	d003      	beq.n	800221e <I2C_ITSlaveCplt+0x3a>
 8002216:	183b      	adds	r3, r7, r0
 8002218:	781b      	ldrb	r3, [r3, #0]
 800221a:	2b29      	cmp	r3, #41	; 0x29
 800221c:	d109      	bne.n	8002232 <I2C_ITSlaveCplt+0x4e>
 800221e:	4a7d      	ldr	r2, [pc, #500]	; (8002414 <I2C_ITSlaveCplt+0x230>)
 8002220:	687b      	ldr	r3, [r7, #4]
 8002222:	0011      	movs	r1, r2
 8002224:	0018      	movs	r0, r3
 8002226:	f000 fc11 	bl	8002a4c <I2C_Disable_IRQ>
 800222a:	687b      	ldr	r3, [r7, #4]
 800222c:	2221      	movs	r2, #33	; 0x21
 800222e:	631a      	str	r2, [r3, #48]	; 0x30
 8002230:	e011      	b.n	8002256 <I2C_ITSlaveCplt+0x72>
 8002232:	220f      	movs	r2, #15
 8002234:	18bb      	adds	r3, r7, r2
 8002236:	781b      	ldrb	r3, [r3, #0]
 8002238:	2b22      	cmp	r3, #34	; 0x22
 800223a:	d003      	beq.n	8002244 <I2C_ITSlaveCplt+0x60>
 800223c:	18bb      	adds	r3, r7, r2
 800223e:	781b      	ldrb	r3, [r3, #0]
 8002240:	2b2a      	cmp	r3, #42	; 0x2a
 8002242:	d108      	bne.n	8002256 <I2C_ITSlaveCplt+0x72>
 8002244:	4a74      	ldr	r2, [pc, #464]	; (8002418 <I2C_ITSlaveCplt+0x234>)
 8002246:	687b      	ldr	r3, [r7, #4]
 8002248:	0011      	movs	r1, r2
 800224a:	0018      	movs	r0, r3
 800224c:	f000 fbfe 	bl	8002a4c <I2C_Disable_IRQ>
 8002250:	687b      	ldr	r3, [r7, #4]
 8002252:	2222      	movs	r2, #34	; 0x22
 8002254:	631a      	str	r2, [r3, #48]	; 0x30
 8002256:	687b      	ldr	r3, [r7, #4]
 8002258:	681b      	ldr	r3, [r3, #0]
 800225a:	685a      	ldr	r2, [r3, #4]
 800225c:	687b      	ldr	r3, [r7, #4]
 800225e:	681b      	ldr	r3, [r3, #0]
 8002260:	2180      	movs	r1, #128	; 0x80
 8002262:	0209      	lsls	r1, r1, #8
 8002264:	430a      	orrs	r2, r1
 8002266:	605a      	str	r2, [r3, #4]
 8002268:	687b      	ldr	r3, [r7, #4]
 800226a:	681b      	ldr	r3, [r3, #0]
 800226c:	685a      	ldr	r2, [r3, #4]
 800226e:	687b      	ldr	r3, [r7, #4]
 8002270:	681b      	ldr	r3, [r3, #0]
 8002272:	496a      	ldr	r1, [pc, #424]	; (800241c <I2C_ITSlaveCplt+0x238>)
 8002274:	400a      	ands	r2, r1
 8002276:	605a      	str	r2, [r3, #4]
 8002278:	687b      	ldr	r3, [r7, #4]
 800227a:	0018      	movs	r0, r3
 800227c:	f000 fa3b 	bl	80026f6 <I2C_Flush_TXDR>
 8002280:	693b      	ldr	r3, [r7, #16]
 8002282:	0b9b      	lsrs	r3, r3, #14
 8002284:	001a      	movs	r2, r3
 8002286:	2301      	movs	r3, #1
 8002288:	4013      	ands	r3, r2
 800228a:	d013      	beq.n	80022b4 <I2C_ITSlaveCplt+0xd0>
 800228c:	687b      	ldr	r3, [r7, #4]
 800228e:	681b      	ldr	r3, [r3, #0]
 8002290:	681a      	ldr	r2, [r3, #0]
 8002292:	687b      	ldr	r3, [r7, #4]
 8002294:	681b      	ldr	r3, [r3, #0]
 8002296:	4962      	ldr	r1, [pc, #392]	; (8002420 <I2C_ITSlaveCplt+0x23c>)
 8002298:	400a      	ands	r2, r1
 800229a:	601a      	str	r2, [r3, #0]
 800229c:	687b      	ldr	r3, [r7, #4]
 800229e:	6b9b      	ldr	r3, [r3, #56]	; 0x38
 80022a0:	2b00      	cmp	r3, #0
 80022a2:	d020      	beq.n	80022e6 <I2C_ITSlaveCplt+0x102>
 80022a4:	687b      	ldr	r3, [r7, #4]
 80022a6:	6b9b      	ldr	r3, [r3, #56]	; 0x38
 80022a8:	681b      	ldr	r3, [r3, #0]
 80022aa:	685b      	ldr	r3, [r3, #4]
 80022ac:	b29a      	uxth	r2, r3
 80022ae:	687b      	ldr	r3, [r7, #4]
 80022b0:	855a      	strh	r2, [r3, #42]	; 0x2a
 80022b2:	e018      	b.n	80022e6 <I2C_ITSlaveCplt+0x102>
 80022b4:	693b      	ldr	r3, [r7, #16]
 80022b6:	0bdb      	lsrs	r3, r3, #15
 80022b8:	001a      	movs	r2, r3
 80022ba:	2301      	movs	r3, #1
 80022bc:	4013      	ands	r3, r2
 80022be:	d012      	beq.n	80022e6 <I2C_ITSlaveCplt+0x102>
 80022c0:	687b      	ldr	r3, [r7, #4]
 80022c2:	681b      	ldr	r3, [r3, #0]
 80022c4:	681a      	ldr	r2, [r3, #0]
 80022c6:	687b      	ldr	r3, [r7, #4]
 80022c8:	681b      	ldr	r3, [r3, #0]
 80022ca:	4956      	ldr	r1, [pc, #344]	; (8002424 <I2C_ITSlaveCplt+0x240>)
 80022cc:	400a      	ands	r2, r1
 80022ce:	601a      	str	r2, [r3, #0]
 80022d0:	687b      	ldr	r3, [r7, #4]
 80022d2:	6bdb      	ldr	r3, [r3, #60]	; 0x3c
 80022d4:	2b00      	cmp	r3, #0
 80022d6:	d006      	beq.n	80022e6 <I2C_ITSlaveCplt+0x102>
 80022d8:	687b      	ldr	r3, [r7, #4]
 80022da:	6bdb      	ldr	r3, [r3, #60]	; 0x3c
 80022dc:	681b      	ldr	r3, [r3, #0]
 80022de:	685b      	ldr	r3, [r3, #4]
 80022e0:	b29a      	uxth	r2, r3
 80022e2:	687b      	ldr	r3, [r7, #4]
 80022e4:	855a      	strh	r2, [r3, #42]	; 0x2a
 80022e6:	697b      	ldr	r3, [r7, #20]
 80022e8:	089b      	lsrs	r3, r3, #2
 80022ea:	001a      	movs	r2, r3
 80022ec:	2301      	movs	r3, #1
 80022ee:	4013      	ands	r3, r2
 80022f0:	d020      	beq.n	8002334 <I2C_ITSlaveCplt+0x150>
 80022f2:	697b      	ldr	r3, [r7, #20]
 80022f4:	2204      	movs	r2, #4
 80022f6:	4393      	bics	r3, r2
 80022f8:	617b      	str	r3, [r7, #20]
 80022fa:	687b      	ldr	r3, [r7, #4]
 80022fc:	681b      	ldr	r3, [r3, #0]
 80022fe:	6a5a      	ldr	r2, [r3, #36]	; 0x24
 8002300:	687b      	ldr	r3, [r7, #4]
 8002302:	6a5b      	ldr	r3, [r3, #36]	; 0x24
 8002304:	b2d2      	uxtb	r2, r2
 8002306:	701a      	strb	r2, [r3, #0]
 8002308:	687b      	ldr	r3, [r7, #4]
 800230a:	6a5b      	ldr	r3, [r3, #36]	; 0x24
 800230c:	1c5a      	adds	r2, r3, #1
 800230e:	687b      	ldr	r3, [r7, #4]
 8002310:	625a      	str	r2, [r3, #36]	; 0x24
 8002312:	687b      	ldr	r3, [r7, #4]
 8002314:	8d1b      	ldrh	r3, [r3, #40]	; 0x28
 8002316:	2b00      	cmp	r3, #0
 8002318:	d00c      	beq.n	8002334 <I2C_ITSlaveCplt+0x150>
 800231a:	687b      	ldr	r3, [r7, #4]
 800231c:	8d1b      	ldrh	r3, [r3, #40]	; 0x28
 800231e:	3b01      	subs	r3, #1
 8002320:	b29a      	uxth	r2, r3
 8002322:	687b      	ldr	r3, [r7, #4]
 8002324:	851a      	strh	r2, [r3, #40]	; 0x28
 8002326:	687b      	ldr	r3, [r7, #4]
 8002328:	8d5b      	ldrh	r3, [r3, #42]	; 0x2a
 800232a:	b29b      	uxth	r3, r3
 800232c:	3b01      	subs	r3, #1
 800232e:	b29a      	uxth	r2, r3
 8002330:	687b      	ldr	r3, [r7, #4]
 8002332:	855a      	strh	r2, [r3, #42]	; 0x2a
 8002334:	687b      	ldr	r3, [r7, #4]
 8002336:	8d5b      	ldrh	r3, [r3, #42]	; 0x2a
 8002338:	b29b      	uxth	r3, r3
 800233a:	2b00      	cmp	r3, #0
 800233c:	d005      	beq.n	800234a <I2C_ITSlaveCplt+0x166>
 800233e:	687b      	ldr	r3, [r7, #4]
 8002340:	6c5b      	ldr	r3, [r3, #68]	; 0x44
 8002342:	2204      	movs	r2, #4
 8002344:	431a      	orrs	r2, r3
 8002346:	687b      	ldr	r3, [r7, #4]
 8002348:	645a      	str	r2, [r3, #68]	; 0x44
 800234a:	687b      	ldr	r3, [r7, #4]
 800234c:	2242      	movs	r2, #66	; 0x42
 800234e:	2100      	movs	r1, #0
 8002350:	5499      	strb	r1, [r3, r2]
 8002352:	687b      	ldr	r3, [r7, #4]
 8002354:	2200      	movs	r2, #0
 8002356:	635a      	str	r2, [r3, #52]	; 0x34
 8002358:	687b      	ldr	r3, [r7, #4]
 800235a:	6c5b      	ldr	r3, [r3, #68]	; 0x44
 800235c:	2b00      	cmp	r3, #0
 800235e:	d013      	beq.n	8002388 <I2C_ITSlaveCplt+0x1a4>
 8002360:	687b      	ldr	r3, [r7, #4]
 8002362:	6c5a      	ldr	r2, [r3, #68]	; 0x44
 8002364:	687b      	ldr	r3, [r7, #4]
 8002366:	0011      	movs	r1, r2
 8002368:	0018      	movs	r0, r3
 800236a:	f000 f8b9 	bl	80024e0 <I2C_ITError>
 800236e:	687b      	ldr	r3, [r7, #4]
 8002370:	2241      	movs	r2, #65	; 0x41
 8002372:	5c9b      	ldrb	r3, [r3, r2]
 8002374:	b2db      	uxtb	r3, r3
 8002376:	2b28      	cmp	r3, #40	; 0x28
 8002378:	d147      	bne.n	800240a <I2C_ITSlaveCplt+0x226>
 800237a:	697a      	ldr	r2, [r7, #20]
 800237c:	687b      	ldr	r3, [r7, #4]
 800237e:	0011      	movs	r1, r2
 8002380:	0018      	movs	r0, r3
 8002382:	f000 f853 	bl	800242c <I2C_ITListenCplt>
 8002386:	e040      	b.n	800240a <I2C_ITSlaveCplt+0x226>
 8002388:	687b      	ldr	r3, [r7, #4]
 800238a:	6adb      	ldr	r3, [r3, #44]	; 0x2c
 800238c:	4a26      	ldr	r2, [pc, #152]	; (8002428 <I2C_ITSlaveCplt+0x244>)
 800238e:	4293      	cmp	r3, r2
 8002390:	d016      	beq.n	80023c0 <I2C_ITSlaveCplt+0x1dc>
 8002392:	687b      	ldr	r3, [r7, #4]
 8002394:	0018      	movs	r0, r3
 8002396:	f7ff febf 	bl	8002118 <I2C_ITSlaveSeqCplt>
 800239a:	687b      	ldr	r3, [r7, #4]
 800239c:	4a22      	ldr	r2, [pc, #136]	; (8002428 <I2C_ITSlaveCplt+0x244>)
 800239e:	62da      	str	r2, [r3, #44]	; 0x2c
 80023a0:	687b      	ldr	r3, [r7, #4]
 80023a2:	2241      	movs	r2, #65	; 0x41
 80023a4:	2120      	movs	r1, #32
 80023a6:	5499      	strb	r1, [r3, r2]
 80023a8:	687b      	ldr	r3, [r7, #4]
 80023aa:	2200      	movs	r2, #0
 80023ac:	631a      	str	r2, [r3, #48]	; 0x30
 80023ae:	687b      	ldr	r3, [r7, #4]
 80023b0:	2240      	movs	r2, #64	; 0x40
 80023b2:	2100      	movs	r1, #0
 80023b4:	5499      	strb	r1, [r3, r2]
 80023b6:	687b      	ldr	r3, [r7, #4]
 80023b8:	0018      	movs	r0, r3
 80023ba:	f7ff fc17 	bl	8001bec <HAL_I2C_ListenCpltCallback>
 80023be:	e024      	b.n	800240a <I2C_ITSlaveCplt+0x226>
 80023c0:	687b      	ldr	r3, [r7, #4]
 80023c2:	2241      	movs	r2, #65	; 0x41
 80023c4:	5c9b      	ldrb	r3, [r3, r2]
 80023c6:	b2db      	uxtb	r3, r3
 80023c8:	2b22      	cmp	r3, #34	; 0x22
 80023ca:	d10f      	bne.n	80023ec <I2C_ITSlaveCplt+0x208>
 80023cc:	687b      	ldr	r3, [r7, #4]
 80023ce:	2241      	movs	r2, #65	; 0x41
 80023d0:	2120      	movs	r1, #32
 80023d2:	5499      	strb	r1, [r3, r2]
 80023d4:	687b      	ldr	r3, [r7, #4]
 80023d6:	2200      	movs	r2, #0
 80023d8:	631a      	str	r2, [r3, #48]	; 0x30
 80023da:	687b      	ldr	r3, [r7, #4]
 80023dc:	2240      	movs	r2, #64	; 0x40
 80023de:	2100      	movs	r1, #0
 80023e0:	5499      	strb	r1, [r3, r2]
 80023e2:	687b      	ldr	r3, [r7, #4]
 80023e4:	0018      	movs	r0, r3
 80023e6:	f7ff fbe9 	bl	8001bbc <HAL_I2C_SlaveRxCpltCallback>
 80023ea:	e00e      	b.n	800240a <I2C_ITSlaveCplt+0x226>
 80023ec:	687b      	ldr	r3, [r7, #4]
 80023ee:	2241      	movs	r2, #65	; 0x41
 80023f0:	2120      	movs	r1, #32
 80023f2:	5499      	strb	r1, [r3, r2]
 80023f4:	687b      	ldr	r3, [r7, #4]
 80023f6:	2200      	movs	r2, #0
 80023f8:	631a      	str	r2, [r3, #48]	; 0x30
 80023fa:	687b      	ldr	r3, [r7, #4]
 80023fc:	2240      	movs	r2, #64	; 0x40
 80023fe:	2100      	movs	r1, #0
 8002400:	5499      	strb	r1, [r3, r2]
 8002402:	687b      	ldr	r3, [r7, #4]
 8002404:	0018      	movs	r0, r3
 8002406:	f7ff fbd1 	bl	8001bac <HAL_I2C_SlaveTxCpltCallback>
 800240a:	46c0      	nop			; (mov r8, r8)
 800240c:	46bd      	mov	sp, r7
 800240e:	b006      	add	sp, #24
 8002410:	bd80      	pop	{r7, pc}
 8002412:	46c0      	nop			; (mov r8, r8)
 8002414:	00008001 	.word	0x00008001
 8002418:	00008002 	.word	0x00008002
 800241c:	fe00e800 	.word	0xfe00e800
 8002420:	ffffbfff 	.word	0xffffbfff
 8002424:	ffff7fff 	.word	0xffff7fff
 8002428:	ffff0000 	.word	0xffff0000

0800242c <I2C_ITListenCplt>:
 800242c:	b580      	push	{r7, lr}
 800242e:	b082      	sub	sp, #8
 8002430:	af00      	add	r7, sp, #0
 8002432:	6078      	str	r0, [r7, #4]
 8002434:	6039      	str	r1, [r7, #0]
 8002436:	687b      	ldr	r3, [r7, #4]
 8002438:	4a27      	ldr	r2, [pc, #156]	; (80024d8 <I2C_ITListenCplt+0xac>)
 800243a:	62da      	str	r2, [r3, #44]	; 0x2c
 800243c:	687b      	ldr	r3, [r7, #4]
 800243e:	2200      	movs	r2, #0
 8002440:	631a      	str	r2, [r3, #48]	; 0x30
 8002442:	687b      	ldr	r3, [r7, #4]
 8002444:	2241      	movs	r2, #65	; 0x41
 8002446:	2120      	movs	r1, #32
 8002448:	5499      	strb	r1, [r3, r2]
 800244a:	687b      	ldr	r3, [r7, #4]
 800244c:	2242      	movs	r2, #66	; 0x42
 800244e:	2100      	movs	r1, #0
 8002450:	5499      	strb	r1, [r3, r2]
 8002452:	687b      	ldr	r3, [r7, #4]
 8002454:	2200      	movs	r2, #0
 8002456:	635a      	str	r2, [r3, #52]	; 0x34
 8002458:	683b      	ldr	r3, [r7, #0]
 800245a:	089b      	lsrs	r3, r3, #2
 800245c:	001a      	movs	r2, r3
 800245e:	2301      	movs	r3, #1
 8002460:	4013      	ands	r3, r2
 8002462:	d022      	beq.n	80024aa <I2C_ITListenCplt+0x7e>
 8002464:	687b      	ldr	r3, [r7, #4]
 8002466:	681b      	ldr	r3, [r3, #0]
 8002468:	6a5a      	ldr	r2, [r3, #36]	; 0x24
 800246a:	687b      	ldr	r3, [r7, #4]
 800246c:	6a5b      	ldr	r3, [r3, #36]	; 0x24
 800246e:	b2d2      	uxtb	r2, r2
 8002470:	701a      	strb	r2, [r3, #0]
 8002472:	687b      	ldr	r3, [r7, #4]
 8002474:	6a5b      	ldr	r3, [r3, #36]	; 0x24
 8002476:	1c5a      	adds	r2, r3, #1
 8002478:	687b      	ldr	r3, [r7, #4]
 800247a:	625a      	str	r2, [r3, #36]	; 0x24
 800247c:	687b      	ldr	r3, [r7, #4]
 800247e:	8d1b      	ldrh	r3, [r3, #40]	; 0x28
 8002480:	2b00      	cmp	r3, #0
 8002482:	d012      	beq.n	80024aa <I2C_ITListenCplt+0x7e>
 8002484:	687b      	ldr	r3, [r7, #4]
 8002486:	8d1b      	ldrh	r3, [r3, #40]	; 0x28
 8002488:	3b01      	subs	r3, #1
 800248a:	b29a      	uxth	r2, r3
 800248c:	687b      	ldr	r3, [r7, #4]
 800248e:	851a      	strh	r2, [r3, #40]	; 0x28
 8002490:	687b      	ldr	r3, [r7, #4]
 8002492:	8d5b      	ldrh	r3, [r3, #42]	; 0x2a
 8002494:	b29b      	uxth	r3, r3
 8002496:	3b01      	subs	r3, #1
 8002498:	b29a      	uxth	r2, r3
 800249a:	687b      	ldr	r3, [r7, #4]
 800249c:	855a      	strh	r2, [r3, #42]	; 0x2a
 800249e:	687b      	ldr	r3, [r7, #4]
 80024a0:	6c5b      	ldr	r3, [r3, #68]	; 0x44
 80024a2:	2204      	movs	r2, #4
 80024a4:	431a      	orrs	r2, r3
 80024a6:	687b      	ldr	r3, [r7, #4]
 80024a8:	645a      	str	r2, [r3, #68]	; 0x44
 80024aa:	4a0c      	ldr	r2, [pc, #48]	; (80024dc <I2C_ITListenCplt+0xb0>)
 80024ac:	687b      	ldr	r3, [r7, #4]
 80024ae:	0011      	movs	r1, r2
 80024b0:	0018      	movs	r0, r3
 80024b2:	f000 facb 	bl	8002a4c <I2C_Disable_IRQ>
 80024b6:	687b      	ldr	r3, [r7, #4]
 80024b8:	681b      	ldr	r3, [r3, #0]
 80024ba:	2210      	movs	r2, #16
 80024bc:	61da      	str	r2, [r3, #28]
 80024be:	687b      	ldr	r3, [r7, #4]
 80024c0:	2240      	movs	r2, #64	; 0x40
 80024c2:	2100      	movs	r1, #0
 80024c4:	5499      	strb	r1, [r3, r2]
 80024c6:	687b      	ldr	r3, [r7, #4]
 80024c8:	0018      	movs	r0, r3
 80024ca:	f7ff fb8f 	bl	8001bec <HAL_I2C_ListenCpltCallback>
 80024ce:	46c0      	nop			; (mov r8, r8)
 80024d0:	46bd      	mov	sp, r7
 80024d2:	b002      	add	sp, #8
 80024d4:	bd80      	pop	{r7, pc}
 80024d6:	46c0      	nop			; (mov r8, r8)
 80024d8:	ffff0000 	.word	0xffff0000
 80024dc:	00008003 	.word	0x00008003

080024e0 <I2C_ITError>:
 80024e0:	b580      	push	{r7, lr}
 80024e2:	b084      	sub	sp, #16
 80024e4:	af00      	add	r7, sp, #0
 80024e6:	6078      	str	r0, [r7, #4]
 80024e8:	6039      	str	r1, [r7, #0]
 80024ea:	200f      	movs	r0, #15
 80024ec:	183b      	adds	r3, r7, r0
 80024ee:	687a      	ldr	r2, [r7, #4]
 80024f0:	2141      	movs	r1, #65	; 0x41
 80024f2:	5c52      	ldrb	r2, [r2, r1]
 80024f4:	701a      	strb	r2, [r3, #0]
 80024f6:	687b      	ldr	r3, [r7, #4]
 80024f8:	2242      	movs	r2, #66	; 0x42
 80024fa:	2100      	movs	r1, #0
 80024fc:	5499      	strb	r1, [r3, r2]
 80024fe:	687b      	ldr	r3, [r7, #4]
 8002500:	4a62      	ldr	r2, [pc, #392]	; (800268c <I2C_ITError+0x1ac>)
 8002502:	62da      	str	r2, [r3, #44]	; 0x2c
 8002504:	687b      	ldr	r3, [r7, #4]
 8002506:	2200      	movs	r2, #0
 8002508:	855a      	strh	r2, [r3, #42]	; 0x2a
 800250a:	687b      	ldr	r3, [r7, #4]
 800250c:	6c5a      	ldr	r2, [r3, #68]	; 0x44
 800250e:	683b      	ldr	r3, [r7, #0]
 8002510:	431a      	orrs	r2, r3
 8002512:	687b      	ldr	r3, [r7, #4]
 8002514:	645a      	str	r2, [r3, #68]	; 0x44
 8002516:	183b      	adds	r3, r7, r0
 8002518:	781b      	ldrb	r3, [r3, #0]
 800251a:	2b28      	cmp	r3, #40	; 0x28
 800251c:	d007      	beq.n	800252e <I2C_ITError+0x4e>
 800251e:	183b      	adds	r3, r7, r0
 8002520:	781b      	ldrb	r3, [r3, #0]
 8002522:	2b29      	cmp	r3, #41	; 0x29
 8002524:	d003      	beq.n	800252e <I2C_ITError+0x4e>
 8002526:	183b      	adds	r3, r7, r0
 8002528:	781b      	ldrb	r3, [r3, #0]
 800252a:	2b2a      	cmp	r3, #42	; 0x2a
 800252c:	d10c      	bne.n	8002548 <I2C_ITError+0x68>
 800252e:	687b      	ldr	r3, [r7, #4]
 8002530:	2103      	movs	r1, #3
 8002532:	0018      	movs	r0, r3
 8002534:	f000 fa8a 	bl	8002a4c <I2C_Disable_IRQ>
 8002538:	687b      	ldr	r3, [r7, #4]
 800253a:	2241      	movs	r2, #65	; 0x41
 800253c:	2128      	movs	r1, #40	; 0x28
 800253e:	5499      	strb	r1, [r3, r2]
 8002540:	687b      	ldr	r3, [r7, #4]
 8002542:	4a53      	ldr	r2, [pc, #332]	; (8002690 <I2C_ITError+0x1b0>)
 8002544:	635a      	str	r2, [r3, #52]	; 0x34
 8002546:	e012      	b.n	800256e <I2C_ITError+0x8e>
 8002548:	4a52      	ldr	r2, [pc, #328]	; (8002694 <I2C_ITError+0x1b4>)
 800254a:	687b      	ldr	r3, [r7, #4]
 800254c:	0011      	movs	r1, r2
 800254e:	0018      	movs	r0, r3
 8002550:	f000 fa7c 	bl	8002a4c <I2C_Disable_IRQ>
 8002554:	687b      	ldr	r3, [r7, #4]
 8002556:	2241      	movs	r2, #65	; 0x41
 8002558:	5c9b      	ldrb	r3, [r3, r2]
 800255a:	b2db      	uxtb	r3, r3
 800255c:	2b60      	cmp	r3, #96	; 0x60
 800255e:	d003      	beq.n	8002568 <I2C_ITError+0x88>
 8002560:	687b      	ldr	r3, [r7, #4]
 8002562:	2241      	movs	r2, #65	; 0x41
 8002564:	2120      	movs	r1, #32
 8002566:	5499      	strb	r1, [r3, r2]
 8002568:	687b      	ldr	r3, [r7, #4]
 800256a:	2200      	movs	r2, #0
 800256c:	635a      	str	r2, [r3, #52]	; 0x34
 800256e:	687b      	ldr	r3, [r7, #4]
 8002570:	6b1b      	ldr	r3, [r3, #48]	; 0x30
 8002572:	60bb      	str	r3, [r7, #8]
 8002574:	687b      	ldr	r3, [r7, #4]
 8002576:	6b9b      	ldr	r3, [r3, #56]	; 0x38
 8002578:	2b00      	cmp	r3, #0
 800257a:	d03b      	beq.n	80025f4 <I2C_ITError+0x114>
 800257c:	68bb      	ldr	r3, [r7, #8]
 800257e:	2b11      	cmp	r3, #17
 8002580:	d002      	beq.n	8002588 <I2C_ITError+0xa8>
 8002582:	68bb      	ldr	r3, [r7, #8]
 8002584:	2b21      	cmp	r3, #33	; 0x21
 8002586:	d135      	bne.n	80025f4 <I2C_ITError+0x114>
 8002588:	687b      	ldr	r3, [r7, #4]
 800258a:	681b      	ldr	r3, [r3, #0]
 800258c:	681a      	ldr	r2, [r3, #0]
 800258e:	2380      	movs	r3, #128	; 0x80
 8002590:	01db      	lsls	r3, r3, #7
 8002592:	401a      	ands	r2, r3
 8002594:	2380      	movs	r3, #128	; 0x80
 8002596:	01db      	lsls	r3, r3, #7
 8002598:	429a      	cmp	r2, r3
 800259a:	d107      	bne.n	80025ac <I2C_ITError+0xcc>
 800259c:	687b      	ldr	r3, [r7, #4]
 800259e:	681b      	ldr	r3, [r3, #0]
 80025a0:	681a      	ldr	r2, [r3, #0]
 80025a2:	687b      	ldr	r3, [r7, #4]
 80025a4:	681b      	ldr	r3, [r3, #0]
 80025a6:	493c      	ldr	r1, [pc, #240]	; (8002698 <I2C_ITError+0x1b8>)
 80025a8:	400a      	ands	r2, r1
 80025aa:	601a      	str	r2, [r3, #0]
 80025ac:	687b      	ldr	r3, [r7, #4]
 80025ae:	6b9b      	ldr	r3, [r3, #56]	; 0x38
 80025b0:	0018      	movs	r0, r3
 80025b2:	f7fe fdb6 	bl	8001122 <HAL_DMA_GetState>
 80025b6:	0003      	movs	r3, r0
 80025b8:	2b01      	cmp	r3, #1
 80025ba:	d016      	beq.n	80025ea <I2C_ITError+0x10a>
 80025bc:	687b      	ldr	r3, [r7, #4]
 80025be:	6b9b      	ldr	r3, [r3, #56]	; 0x38
 80025c0:	4a36      	ldr	r2, [pc, #216]	; (800269c <I2C_ITError+0x1bc>)
 80025c2:	635a      	str	r2, [r3, #52]	; 0x34
 80025c4:	687b      	ldr	r3, [r7, #4]
 80025c6:	2240      	movs	r2, #64	; 0x40
 80025c8:	2100      	movs	r1, #0
 80025ca:	5499      	strb	r1, [r3, r2]
 80025cc:	687b      	ldr	r3, [r7, #4]
 80025ce:	6b9b      	ldr	r3, [r3, #56]	; 0x38
 80025d0:	0018      	movs	r0, r3
 80025d2:	f7fe fd61 	bl	8001098 <HAL_DMA_Abort_IT>
 80025d6:	1e03      	subs	r3, r0, #0
 80025d8:	d051      	beq.n	800267e <I2C_ITError+0x19e>
 80025da:	687b      	ldr	r3, [r7, #4]
 80025dc:	6b9b      	ldr	r3, [r3, #56]	; 0x38
 80025de:	6b5a      	ldr	r2, [r3, #52]	; 0x34
 80025e0:	687b      	ldr	r3, [r7, #4]
 80025e2:	6b9b      	ldr	r3, [r3, #56]	; 0x38
 80025e4:	0018      	movs	r0, r3
 80025e6:	4790      	blx	r2
 80025e8:	e049      	b.n	800267e <I2C_ITError+0x19e>
 80025ea:	687b      	ldr	r3, [r7, #4]
 80025ec:	0018      	movs	r0, r3
 80025ee:	f000 f859 	bl	80026a4 <I2C_TreatErrorCallback>
 80025f2:	e044      	b.n	800267e <I2C_ITError+0x19e>
 80025f4:	687b      	ldr	r3, [r7, #4]
 80025f6:	6bdb      	ldr	r3, [r3, #60]	; 0x3c
 80025f8:	2b00      	cmp	r3, #0
 80025fa:	d03b      	beq.n	8002674 <I2C_ITError+0x194>
 80025fc:	68bb      	ldr	r3, [r7, #8]
 80025fe:	2b12      	cmp	r3, #18
 8002600:	d002      	beq.n	8002608 <I2C_ITError+0x128>
 8002602:	68bb      	ldr	r3, [r7, #8]
 8002604:	2b22      	cmp	r3, #34	; 0x22
 8002606:	d135      	bne.n	8002674 <I2C_ITError+0x194>
 8002608:	687b      	ldr	r3, [r7, #4]
 800260a:	681b      	ldr	r3, [r3, #0]
 800260c:	681a      	ldr	r2, [r3, #0]
 800260e:	2380      	movs	r3, #128	; 0x80
 8002610:	021b      	lsls	r3, r3, #8
 8002612:	401a      	ands	r2, r3
 8002614:	2380      	movs	r3, #128	; 0x80
 8002616:	021b      	lsls	r3, r3, #8
 8002618:	429a      	cmp	r2, r3
 800261a:	d107      	bne.n	800262c <I2C_ITError+0x14c>
 800261c:	687b      	ldr	r3, [r7, #4]
 800261e:	681b      	ldr	r3, [r3, #0]
 8002620:	681a      	ldr	r2, [r3, #0]
 8002622:	687b      	ldr	r3, [r7, #4]
 8002624:	681b      	ldr	r3, [r3, #0]
 8002626:	491e      	ldr	r1, [pc, #120]	; (80026a0 <I2C_ITError+0x1c0>)
 8002628:	400a      	ands	r2, r1
 800262a:	601a      	str	r2, [r3, #0]
 800262c:	687b      	ldr	r3, [r7, #4]
 800262e:	6bdb      	ldr	r3, [r3, #60]	; 0x3c
 8002630:	0018      	movs	r0, r3
 8002632:	f7fe fd76 	bl	8001122 <HAL_DMA_GetState>
 8002636:	0003      	movs	r3, r0
 8002638:	2b01      	cmp	r3, #1
 800263a:	d016      	beq.n	800266a <I2C_ITError+0x18a>
 800263c:	687b      	ldr	r3, [r7, #4]
 800263e:	6bdb      	ldr	r3, [r3, #60]	; 0x3c
 8002640:	4a16      	ldr	r2, [pc, #88]	; (800269c <I2C_ITError+0x1bc>)
 8002642:	635a      	str	r2, [r3, #52]	; 0x34
 8002644:	687b      	ldr	r3, [r7, #4]
 8002646:	2240      	movs	r2, #64	; 0x40
 8002648:	2100      	movs	r1, #0
 800264a:	5499      	strb	r1, [r3, r2]
 800264c:	687b      	ldr	r3, [r7, #4]
 800264e:	6bdb      	ldr	r3, [r3, #60]	; 0x3c
 8002650:	0018      	movs	r0, r3
 8002652:	f7fe fd21 	bl	8001098 <HAL_DMA_Abort_IT>
 8002656:	1e03      	subs	r3, r0, #0
 8002658:	d013      	beq.n	8002682 <I2C_ITError+0x1a2>
 800265a:	687b      	ldr	r3, [r7, #4]
 800265c:	6bdb      	ldr	r3, [r3, #60]	; 0x3c
 800265e:	6b5a      	ldr	r2, [r3, #52]	; 0x34
 8002660:	687b      	ldr	r3, [r7, #4]
 8002662:	6bdb      	ldr	r3, [r3, #60]	; 0x3c
 8002664:	0018      	movs	r0, r3
 8002666:	4790      	blx	r2
 8002668:	e00b      	b.n	8002682 <I2C_ITError+0x1a2>
 800266a:	687b      	ldr	r3, [r7, #4]
 800266c:	0018      	movs	r0, r3
 800266e:	f000 f819 	bl	80026a4 <I2C_TreatErrorCallback>
 8002672:	e006      	b.n	8002682 <I2C_ITError+0x1a2>
 8002674:	687b      	ldr	r3, [r7, #4]
 8002676:	0018      	movs	r0, r3
 8002678:	f000 f814 	bl	80026a4 <I2C_TreatErrorCallback>
 800267c:	e002      	b.n	8002684 <I2C_ITError+0x1a4>
 800267e:	46c0      	nop			; (mov r8, r8)
 8002680:	e000      	b.n	8002684 <I2C_ITError+0x1a4>
 8002682:	46c0      	nop			; (mov r8, r8)
 8002684:	46c0      	nop			; (mov r8, r8)
 8002686:	46bd      	mov	sp, r7
 8002688:	b004      	add	sp, #16
 800268a:	bd80      	pop	{r7, pc}
 800268c:	ffff0000 	.word	0xffff0000
 8002690:	08001c1d 	.word	0x08001c1d
 8002694:	00008003 	.word	0x00008003
 8002698:	ffffbfff 	.word	0xffffbfff
 800269c:	0800273b 	.word	0x0800273b
 80026a0:	ffff7fff 	.word	0xffff7fff

080026a4 <I2C_TreatErrorCallback>:
 80026a4:	b580      	push	{r7, lr}
 80026a6:	b082      	sub	sp, #8
 80026a8:	af00      	add	r7, sp, #0
 80026aa:	6078      	str	r0, [r7, #4]
 80026ac:	687b      	ldr	r3, [r7, #4]
 80026ae:	2241      	movs	r2, #65	; 0x41
 80026b0:	5c9b      	ldrb	r3, [r3, r2]
 80026b2:	b2db      	uxtb	r3, r3
 80026b4:	2b60      	cmp	r3, #96	; 0x60
 80026b6:	d10f      	bne.n	80026d8 <I2C_TreatErrorCallback+0x34>
 80026b8:	687b      	ldr	r3, [r7, #4]
 80026ba:	2241      	movs	r2, #65	; 0x41
 80026bc:	2120      	movs	r1, #32
 80026be:	5499      	strb	r1, [r3, r2]
 80026c0:	687b      	ldr	r3, [r7, #4]
 80026c2:	2200      	movs	r2, #0
 80026c4:	631a      	str	r2, [r3, #48]	; 0x30
 80026c6:	687b      	ldr	r3, [r7, #4]
 80026c8:	2240      	movs	r2, #64	; 0x40
 80026ca:	2100      	movs	r1, #0
 80026cc:	5499      	strb	r1, [r3, r2]
 80026ce:	687b      	ldr	r3, [r7, #4]
 80026d0:	0018      	movs	r0, r3
 80026d2:	f7ff fa9b 	bl	8001c0c <HAL_I2C_AbortCpltCallback>
 80026d6:	e00a      	b.n	80026ee <I2C_TreatErrorCallback+0x4a>
 80026d8:	687b      	ldr	r3, [r7, #4]
 80026da:	2200      	movs	r2, #0
 80026dc:	631a      	str	r2, [r3, #48]	; 0x30
 80026de:	687b      	ldr	r3, [r7, #4]
 80026e0:	2240      	movs	r2, #64	; 0x40
 80026e2:	2100      	movs	r1, #0
 80026e4:	5499      	strb	r1, [r3, r2]
 80026e6:	687b      	ldr	r3, [r7, #4]
 80026e8:	0018      	movs	r0, r3
 80026ea:	f7ff fa87 	bl	8001bfc <HAL_I2C_ErrorCallback>
 80026ee:	46c0      	nop			; (mov r8, r8)
 80026f0:	46bd      	mov	sp, r7
 80026f2:	b002      	add	sp, #8
 80026f4:	bd80      	pop	{r7, pc}

080026f6 <I2C_Flush_TXDR>:
 80026f6:	b580      	push	{r7, lr}
 80026f8:	b082      	sub	sp, #8
 80026fa:	af00      	add	r7, sp, #0
 80026fc:	6078      	str	r0, [r7, #4]
 80026fe:	687b      	ldr	r3, [r7, #4]
 8002700:	681b      	ldr	r3, [r3, #0]
 8002702:	699b      	ldr	r3, [r3, #24]
 8002704:	2202      	movs	r2, #2
 8002706:	4013      	ands	r3, r2
 8002708:	2b02      	cmp	r3, #2
 800270a:	d103      	bne.n	8002714 <I2C_Flush_TXDR+0x1e>
 800270c:	687b      	ldr	r3, [r7, #4]
 800270e:	681b      	ldr	r3, [r3, #0]
 8002710:	2200      	movs	r2, #0
 8002712:	629a      	str	r2, [r3, #40]	; 0x28
 8002714:	687b      	ldr	r3, [r7, #4]
 8002716:	681b      	ldr	r3, [r3, #0]
 8002718:	699b      	ldr	r3, [r3, #24]
 800271a:	2201      	movs	r2, #1
 800271c:	4013      	ands	r3, r2
 800271e:	2b01      	cmp	r3, #1
 8002720:	d007      	beq.n	8002732 <I2C_Flush_TXDR+0x3c>
 8002722:	687b      	ldr	r3, [r7, #4]
 8002724:	681b      	ldr	r3, [r3, #0]
 8002726:	699a      	ldr	r2, [r3, #24]
 8002728:	687b      	ldr	r3, [r7, #4]
 800272a:	681b      	ldr	r3, [r3, #0]
 800272c:	2101      	movs	r1, #1
 800272e:	430a      	orrs	r2, r1
 8002730:	619a      	str	r2, [r3, #24]
 8002732:	46c0      	nop			; (mov r8, r8)
 8002734:	46bd      	mov	sp, r7
 8002736:	b002      	add	sp, #8
 8002738:	bd80      	pop	{r7, pc}

0800273a <I2C_DMAAbort>:
 800273a:	b580      	push	{r7, lr}
 800273c:	b084      	sub	sp, #16
 800273e:	af00      	add	r7, sp, #0
 8002740:	6078      	str	r0, [r7, #4]
 8002742:	687b      	ldr	r3, [r7, #4]
 8002744:	6a5b      	ldr	r3, [r3, #36]	; 0x24
 8002746:	60fb      	str	r3, [r7, #12]
 8002748:	68fb      	ldr	r3, [r7, #12]
 800274a:	6b9b      	ldr	r3, [r3, #56]	; 0x38
 800274c:	2b00      	cmp	r3, #0
 800274e:	d003      	beq.n	8002758 <I2C_DMAAbort+0x1e>
 8002750:	68fb      	ldr	r3, [r7, #12]
 8002752:	6b9b      	ldr	r3, [r3, #56]	; 0x38
 8002754:	2200      	movs	r2, #0
 8002756:	635a      	str	r2, [r3, #52]	; 0x34
 8002758:	68fb      	ldr	r3, [r7, #12]
 800275a:	6bdb      	ldr	r3, [r3, #60]	; 0x3c
 800275c:	2b00      	cmp	r3, #0
 800275e:	d003      	beq.n	8002768 <I2C_DMAAbort+0x2e>
 8002760:	68fb      	ldr	r3, [r7, #12]
 8002762:	6bdb      	ldr	r3, [r3, #60]	; 0x3c
 8002764:	2200      	movs	r2, #0
 8002766:	635a      	str	r2, [r3, #52]	; 0x34
 8002768:	68fb      	ldr	r3, [r7, #12]
 800276a:	0018      	movs	r0, r3
 800276c:	f7ff ff9a 	bl	80026a4 <I2C_TreatErrorCallback>
 8002770:	46c0      	nop			; (mov r8, r8)
 8002772:	46bd      	mov	sp, r7
 8002774:	b004      	add	sp, #16
 8002776:	bd80      	pop	{r7, pc}

08002778 <I2C_WaitOnFlagUntilTimeout>:
 8002778:	b580      	push	{r7, lr}
 800277a:	b084      	sub	sp, #16
 800277c:	af00      	add	r7, sp, #0
 800277e:	60f8      	str	r0, [r7, #12]
 8002780:	60b9      	str	r1, [r7, #8]
 8002782:	603b      	str	r3, [r7, #0]
 8002784:	1dfb      	adds	r3, r7, #7
 8002786:	701a      	strb	r2, [r3, #0]
 8002788:	e021      	b.n	80027ce <I2C_WaitOnFlagUntilTimeout+0x56>
 800278a:	683b      	ldr	r3, [r7, #0]
 800278c:	3301      	adds	r3, #1
 800278e:	d01e      	beq.n	80027ce <I2C_WaitOnFlagUntilTimeout+0x56>
 8002790:	f7fe fb76 	bl	8000e80 <HAL_GetTick>
 8002794:	0002      	movs	r2, r0
 8002796:	69bb      	ldr	r3, [r7, #24]
 8002798:	1ad3      	subs	r3, r2, r3
 800279a:	683a      	ldr	r2, [r7, #0]
 800279c:	429a      	cmp	r2, r3
 800279e:	d302      	bcc.n	80027a6 <I2C_WaitOnFlagUntilTimeout+0x2e>
 80027a0:	683b      	ldr	r3, [r7, #0]
 80027a2:	2b00      	cmp	r3, #0
 80027a4:	d113      	bne.n	80027ce <I2C_WaitOnFlagUntilTimeout+0x56>
 80027a6:	68fb      	ldr	r3, [r7, #12]
 80027a8:	6c5b      	ldr	r3, [r3, #68]	; 0x44
 80027aa:	2220      	movs	r2, #32
 80027ac:	431a      	orrs	r2, r3
 80027ae:	68fb      	ldr	r3, [r7, #12]
 80027b0:	645a      	str	r2, [r3, #68]	; 0x44
 80027b2:	68fb      	ldr	r3, [r7, #12]
 80027b4:	2241      	movs	r2, #65	; 0x41
 80027b6:	2120      	movs	r1, #32
 80027b8:	5499      	strb	r1, [r3, r2]
 80027ba:	68fb      	ldr	r3, [r7, #12]
 80027bc:	2242      	movs	r2, #66	; 0x42
 80027be:	2100      	movs	r1, #0
 80027c0:	5499      	strb	r1, [r3, r2]
 80027c2:	68fb      	ldr	r3, [r7, #12]
 80027c4:	2240      	movs	r2, #64	; 0x40
 80027c6:	2100      	movs	r1, #0
 80027c8:	5499      	strb	r1, [r3, r2]
 80027ca:	2301      	movs	r3, #1
 80027cc:	e00f      	b.n	80027ee <I2C_WaitOnFlagUntilTimeout+0x76>
 80027ce:	68fb      	ldr	r3, [r7, #12]
 80027d0:	681b      	ldr	r3, [r3, #0]
 80027d2:	699b      	ldr	r3, [r3, #24]
 80027d4:	68ba      	ldr	r2, [r7, #8]
 80027d6:	4013      	ands	r3, r2
 80027d8:	68ba      	ldr	r2, [r7, #8]
 80027da:	1ad3      	subs	r3, r2, r3
 80027dc:	425a      	negs	r2, r3
 80027de:	4153      	adcs	r3, r2
 80027e0:	b2db      	uxtb	r3, r3
 80027e2:	001a      	movs	r2, r3
 80027e4:	1dfb      	adds	r3, r7, #7
 80027e6:	781b      	ldrb	r3, [r3, #0]
 80027e8:	429a      	cmp	r2, r3
 80027ea:	d0ce      	beq.n	800278a <I2C_WaitOnFlagUntilTimeout+0x12>
 80027ec:	2300      	movs	r3, #0
 80027ee:	0018      	movs	r0, r3
 80027f0:	46bd      	mov	sp, r7
 80027f2:	b004      	add	sp, #16
 80027f4:	bd80      	pop	{r7, pc}

080027f6 <I2C_WaitOnTXISFlagUntilTimeout>:
 80027f6:	b580      	push	{r7, lr}
 80027f8:	b084      	sub	sp, #16
 80027fa:	af00      	add	r7, sp, #0
 80027fc:	60f8      	str	r0, [r7, #12]
 80027fe:	60b9      	str	r1, [r7, #8]
 8002800:	607a      	str	r2, [r7, #4]
 8002802:	e02b      	b.n	800285c <I2C_WaitOnTXISFlagUntilTimeout+0x66>
 8002804:	687a      	ldr	r2, [r7, #4]
 8002806:	68b9      	ldr	r1, [r7, #8]
 8002808:	68fb      	ldr	r3, [r7, #12]
 800280a:	0018      	movs	r0, r3
 800280c:	f000 f86e 	bl	80028ec <I2C_IsAcknowledgeFailed>
 8002810:	1e03      	subs	r3, r0, #0
 8002812:	d001      	beq.n	8002818 <I2C_WaitOnTXISFlagUntilTimeout+0x22>
 8002814:	2301      	movs	r3, #1
 8002816:	e029      	b.n	800286c <I2C_WaitOnTXISFlagUntilTimeout+0x76>
 8002818:	68bb      	ldr	r3, [r7, #8]
 800281a:	3301      	adds	r3, #1
 800281c:	d01e      	beq.n	800285c <I2C_WaitOnTXISFlagUntilTimeout+0x66>
 800281e:	f7fe fb2f 	bl	8000e80 <HAL_GetTick>
 8002822:	0002      	movs	r2, r0
 8002824:	687b      	ldr	r3, [r7, #4]
 8002826:	1ad3      	subs	r3, r2, r3
 8002828:	68ba      	ldr	r2, [r7, #8]
 800282a:	429a      	cmp	r2, r3
 800282c:	d302      	bcc.n	8002834 <I2C_WaitOnTXISFlagUntilTimeout+0x3e>
 800282e:	68bb      	ldr	r3, [r7, #8]
 8002830:	2b00      	cmp	r3, #0
 8002832:	d113      	bne.n	800285c <I2C_WaitOnTXISFlagUntilTimeout+0x66>
 8002834:	68fb      	ldr	r3, [r7, #12]
 8002836:	6c5b      	ldr	r3, [r3, #68]	; 0x44
 8002838:	2220      	movs	r2, #32
 800283a:	431a      	orrs	r2, r3
 800283c:	68fb      	ldr	r3, [r7, #12]
 800283e:	645a      	str	r2, [r3, #68]	; 0x44
 8002840:	68fb      	ldr	r3, [r7, #12]
 8002842:	2241      	movs	r2, #65	; 0x41
 8002844:	2120      	movs	r1, #32
 8002846:	5499      	strb	r1, [r3, r2]
 8002848:	68fb      	ldr	r3, [r7, #12]
 800284a:	2242      	movs	r2, #66	; 0x42
 800284c:	2100      	movs	r1, #0
 800284e:	5499      	strb	r1, [r3, r2]
 8002850:	68fb      	ldr	r3, [r7, #12]
 8002852:	2240      	movs	r2, #64	; 0x40
 8002854:	2100      	movs	r1, #0
 8002856:	5499      	strb	r1, [r3, r2]
 8002858:	2301      	movs	r3, #1
 800285a:	e007      	b.n	800286c <I2C_WaitOnTXISFlagUntilTimeout+0x76>
 800285c:	68fb      	ldr	r3, [r7, #12]
 800285e:	681b      	ldr	r3, [r3, #0]
 8002860:	699b      	ldr	r3, [r3, #24]
 8002862:	2202      	movs	r2, #2
 8002864:	4013      	ands	r3, r2
 8002866:	2b02      	cmp	r3, #2
 8002868:	d1cc      	bne.n	8002804 <I2C_WaitOnTXISFlagUntilTimeout+0xe>
 800286a:	2300      	movs	r3, #0
 800286c:	0018      	movs	r0, r3
 800286e:	46bd      	mov	sp, r7
 8002870:	b004      	add	sp, #16
 8002872:	bd80      	pop	{r7, pc}

08002874 <I2C_WaitOnSTOPFlagUntilTimeout>:
 8002874:	b580      	push	{r7, lr}
 8002876:	b084      	sub	sp, #16
 8002878:	af00      	add	r7, sp, #0
 800287a:	60f8      	str	r0, [r7, #12]
 800287c:	60b9      	str	r1, [r7, #8]
 800287e:	607a      	str	r2, [r7, #4]
 8002880:	e028      	b.n	80028d4 <I2C_WaitOnSTOPFlagUntilTimeout+0x60>
 8002882:	687a      	ldr	r2, [r7, #4]
 8002884:	68b9      	ldr	r1, [r7, #8]
 8002886:	68fb      	ldr	r3, [r7, #12]
 8002888:	0018      	movs	r0, r3
 800288a:	f000 f82f 	bl	80028ec <I2C_IsAcknowledgeFailed>
 800288e:	1e03      	subs	r3, r0, #0
 8002890:	d001      	beq.n	8002896 <I2C_WaitOnSTOPFlagUntilTimeout+0x22>
 8002892:	2301      	movs	r3, #1
 8002894:	e026      	b.n	80028e4 <I2C_WaitOnSTOPFlagUntilTimeout+0x70>
 8002896:	f7fe faf3 	bl	8000e80 <HAL_GetTick>
 800289a:	0002      	movs	r2, r0
 800289c:	687b      	ldr	r3, [r7, #4]
 800289e:	1ad3      	subs	r3, r2, r3
 80028a0:	68ba      	ldr	r2, [r7, #8]
 80028a2:	429a      	cmp	r2, r3
 80028a4:	d302      	bcc.n	80028ac <I2C_WaitOnSTOPFlagUntilTimeout+0x38>
 80028a6:	68bb      	ldr	r3, [r7, #8]
 80028a8:	2b00      	cmp	r3, #0
 80028aa:	d113      	bne.n	80028d4 <I2C_WaitOnSTOPFlagUntilTimeout+0x60>
 80028ac:	68fb      	ldr	r3, [r7, #12]
 80028ae:	6c5b      	ldr	r3, [r3, #68]	; 0x44
 80028b0:	2220      	movs	r2, #32
 80028b2:	431a      	orrs	r2, r3
 80028b4:	68fb      	ldr	r3, [r7, #12]
 80028b6:	645a      	str	r2, [r3, #68]	; 0x44
 80028b8:	68fb      	ldr	r3, [r7, #12]
 80028ba:	2241      	movs	r2, #65	; 0x41
 80028bc:	2120      	movs	r1, #32
 80028be:	5499      	strb	r1, [r3, r2]
 80028c0:	68fb      	ldr	r3, [r7, #12]
 80028c2:	2242      	movs	r2, #66	; 0x42
 80028c4:	2100      	movs	r1, #0
 80028c6:	5499      	strb	r1, [r3, r2]
 80028c8:	68fb      	ldr	r3, [r7, #12]
 80028ca:	2240      	movs	r2, #64	; 0x40
 80028cc:	2100      	movs	r1, #0
 80028ce:	5499      	strb	r1, [r3, r2]
 80028d0:	2301      	movs	r3, #1
 80028d2:	e007      	b.n	80028e4 <I2C_WaitOnSTOPFlagUntilTimeout+0x70>
 80028d4:	68fb      	ldr	r3, [r7, #12]
 80028d6:	681b      	ldr	r3, [r3, #0]
 80028d8:	699b      	ldr	r3, [r3, #24]
 80028da:	2220      	movs	r2, #32
 80028dc:	4013      	ands	r3, r2
 80028de:	2b20      	cmp	r3, #32
 80028e0:	d1cf      	bne.n	8002882 <I2C_WaitOnSTOPFlagUntilTimeout+0xe>
 80028e2:	2300      	movs	r3, #0
 80028e4:	0018      	movs	r0, r3
 80028e6:	46bd      	mov	sp, r7
 80028e8:	b004      	add	sp, #16
 80028ea:	bd80      	pop	{r7, pc}

080028ec <I2C_IsAcknowledgeFailed>:
 80028ec:	b580      	push	{r7, lr}
 80028ee:	b084      	sub	sp, #16
 80028f0:	af00      	add	r7, sp, #0
 80028f2:	60f8      	str	r0, [r7, #12]
 80028f4:	60b9      	str	r1, [r7, #8]
 80028f6:	607a      	str	r2, [r7, #4]
 80028f8:	68fb      	ldr	r3, [r7, #12]
 80028fa:	681b      	ldr	r3, [r3, #0]
 80028fc:	699b      	ldr	r3, [r3, #24]
 80028fe:	2210      	movs	r2, #16
 8002900:	4013      	ands	r3, r2
 8002902:	2b10      	cmp	r3, #16
 8002904:	d164      	bne.n	80029d0 <I2C_IsAcknowledgeFailed+0xe4>
 8002906:	68fb      	ldr	r3, [r7, #12]
 8002908:	681b      	ldr	r3, [r3, #0]
 800290a:	685a      	ldr	r2, [r3, #4]
 800290c:	2380      	movs	r3, #128	; 0x80
 800290e:	049b      	lsls	r3, r3, #18
 8002910:	401a      	ands	r2, r3
 8002912:	2380      	movs	r3, #128	; 0x80
 8002914:	049b      	lsls	r3, r3, #18
 8002916:	429a      	cmp	r2, r3
 8002918:	d02b      	beq.n	8002972 <I2C_IsAcknowledgeFailed+0x86>
 800291a:	68fb      	ldr	r3, [r7, #12]
 800291c:	681b      	ldr	r3, [r3, #0]
 800291e:	685a      	ldr	r2, [r3, #4]
 8002920:	68fb      	ldr	r3, [r7, #12]
 8002922:	681b      	ldr	r3, [r3, #0]
 8002924:	2180      	movs	r1, #128	; 0x80
 8002926:	01c9      	lsls	r1, r1, #7
 8002928:	430a      	orrs	r2, r1
 800292a:	605a      	str	r2, [r3, #4]
 800292c:	e021      	b.n	8002972 <I2C_IsAcknowledgeFailed+0x86>
 800292e:	68bb      	ldr	r3, [r7, #8]
 8002930:	3301      	adds	r3, #1
 8002932:	d01e      	beq.n	8002972 <I2C_IsAcknowledgeFailed+0x86>
 8002934:	f7fe faa4 	bl	8000e80 <HAL_GetTick>
 8002938:	0002      	movs	r2, r0
 800293a:	687b      	ldr	r3, [r7, #4]
 800293c:	1ad3      	subs	r3, r2, r3
 800293e:	68ba      	ldr	r2, [r7, #8]
 8002940:	429a      	cmp	r2, r3
 8002942:	d302      	bcc.n	800294a <I2C_IsAcknowledgeFailed+0x5e>
 8002944:	68bb      	ldr	r3, [r7, #8]
 8002946:	2b00      	cmp	r3, #0
 8002948:	d113      	bne.n	8002972 <I2C_IsAcknowledgeFailed+0x86>
 800294a:	68fb      	ldr	r3, [r7, #12]
 800294c:	6c5b      	ldr	r3, [r3, #68]	; 0x44
 800294e:	2220      	movs	r2, #32
 8002950:	431a      	orrs	r2, r3
 8002952:	68fb      	ldr	r3, [r7, #12]
 8002954:	645a      	str	r2, [r3, #68]	; 0x44
 8002956:	68fb      	ldr	r3, [r7, #12]
 8002958:	2241      	movs	r2, #65	; 0x41
 800295a:	2120      	movs	r1, #32
 800295c:	5499      	strb	r1, [r3, r2]
 800295e:	68fb      	ldr	r3, [r7, #12]
 8002960:	2242      	movs	r2, #66	; 0x42
 8002962:	2100      	movs	r1, #0
 8002964:	5499      	strb	r1, [r3, r2]
 8002966:	68fb      	ldr	r3, [r7, #12]
 8002968:	2240      	movs	r2, #64	; 0x40
 800296a:	2100      	movs	r1, #0
 800296c:	5499      	strb	r1, [r3, r2]
 800296e:	2301      	movs	r3, #1
 8002970:	e02f      	b.n	80029d2 <I2C_IsAcknowledgeFailed+0xe6>
 8002972:	68fb      	ldr	r3, [r7, #12]
 8002974:	681b      	ldr	r3, [r3, #0]
 8002976:	699b      	ldr	r3, [r3, #24]
 8002978:	2220      	movs	r2, #32
 800297a:	4013      	ands	r3, r2
 800297c:	2b20      	cmp	r3, #32
 800297e:	d1d6      	bne.n	800292e <I2C_IsAcknowledgeFailed+0x42>
 8002980:	68fb      	ldr	r3, [r7, #12]
 8002982:	681b      	ldr	r3, [r3, #0]
 8002984:	2210      	movs	r2, #16
 8002986:	61da      	str	r2, [r3, #28]
 8002988:	68fb      	ldr	r3, [r7, #12]
 800298a:	681b      	ldr	r3, [r3, #0]
 800298c:	2220      	movs	r2, #32
 800298e:	61da      	str	r2, [r3, #28]
 8002990:	68fb      	ldr	r3, [r7, #12]
 8002992:	0018      	movs	r0, r3
 8002994:	f7ff feaf 	bl	80026f6 <I2C_Flush_TXDR>
 8002998:	68fb      	ldr	r3, [r7, #12]
 800299a:	681b      	ldr	r3, [r3, #0]
 800299c:	685a      	ldr	r2, [r3, #4]
 800299e:	68fb      	ldr	r3, [r7, #12]
 80029a0:	681b      	ldr	r3, [r3, #0]
 80029a2:	490e      	ldr	r1, [pc, #56]	; (80029dc <I2C_IsAcknowledgeFailed+0xf0>)
 80029a4:	400a      	ands	r2, r1
 80029a6:	605a      	str	r2, [r3, #4]
 80029a8:	68fb      	ldr	r3, [r7, #12]
 80029aa:	6c5b      	ldr	r3, [r3, #68]	; 0x44
 80029ac:	2204      	movs	r2, #4
 80029ae:	431a      	orrs	r2, r3
 80029b0:	68fb      	ldr	r3, [r7, #12]
 80029b2:	645a      	str	r2, [r3, #68]	; 0x44
 80029b4:	68fb      	ldr	r3, [r7, #12]
 80029b6:	2241      	movs	r2, #65	; 0x41
 80029b8:	2120      	movs	r1, #32
 80029ba:	5499      	strb	r1, [r3, r2]
 80029bc:	68fb      	ldr	r3, [r7, #12]
 80029be:	2242      	movs	r2, #66	; 0x42
 80029c0:	2100      	movs	r1, #0
 80029c2:	5499      	strb	r1, [r3, r2]
 80029c4:	68fb      	ldr	r3, [r7, #12]
 80029c6:	2240      	movs	r2, #64	; 0x40
 80029c8:	2100      	movs	r1, #0
 80029ca:	5499      	strb	r1, [r3, r2]
 80029cc:	2301      	movs	r3, #1
 80029ce:	e000      	b.n	80029d2 <I2C_IsAcknowledgeFailed+0xe6>
 80029d0:	2300      	movs	r3, #0
 80029d2:	0018      	movs	r0, r3
 80029d4:	46bd      	mov	sp, r7
 80029d6:	b004      	add	sp, #16
 80029d8:	bd80      	pop	{r7, pc}
 80029da:	46c0      	nop			; (mov r8, r8)
 80029dc:	fe00e800 	.word	0xfe00e800

080029e0 <I2C_TransferConfig>:
 80029e0:	b590      	push	{r4, r7, lr}
 80029e2:	b085      	sub	sp, #20
 80029e4:	af00      	add	r7, sp, #0
 80029e6:	60f8      	str	r0, [r7, #12]
 80029e8:	0008      	movs	r0, r1
 80029ea:	0011      	movs	r1, r2
 80029ec:	607b      	str	r3, [r7, #4]
 80029ee:	240a      	movs	r4, #10
 80029f0:	193b      	adds	r3, r7, r4
 80029f2:	1c02      	adds	r2, r0, #0
 80029f4:	801a      	strh	r2, [r3, #0]
 80029f6:	2009      	movs	r0, #9
 80029f8:	183b      	adds	r3, r7, r0
 80029fa:	1c0a      	adds	r2, r1, #0
 80029fc:	701a      	strb	r2, [r3, #0]
 80029fe:	68fb      	ldr	r3, [r7, #12]
 8002a00:	681b      	ldr	r3, [r3, #0]
 8002a02:	685b      	ldr	r3, [r3, #4]
 8002a04:	6a3a      	ldr	r2, [r7, #32]
 8002a06:	0d51      	lsrs	r1, r2, #21
 8002a08:	2280      	movs	r2, #128	; 0x80
 8002a0a:	00d2      	lsls	r2, r2, #3
 8002a0c:	400a      	ands	r2, r1
 8002a0e:	490e      	ldr	r1, [pc, #56]	; (8002a48 <I2C_TransferConfig+0x68>)
 8002a10:	430a      	orrs	r2, r1
 8002a12:	43d2      	mvns	r2, r2
 8002a14:	401a      	ands	r2, r3
 8002a16:	0011      	movs	r1, r2
 8002a18:	193b      	adds	r3, r7, r4
 8002a1a:	881b      	ldrh	r3, [r3, #0]
 8002a1c:	059b      	lsls	r3, r3, #22
 8002a1e:	0d9a      	lsrs	r2, r3, #22
 8002a20:	183b      	adds	r3, r7, r0
 8002a22:	781b      	ldrb	r3, [r3, #0]
 8002a24:	0418      	lsls	r0, r3, #16
 8002a26:	23ff      	movs	r3, #255	; 0xff
 8002a28:	041b      	lsls	r3, r3, #16
 8002a2a:	4003      	ands	r3, r0
 8002a2c:	431a      	orrs	r2, r3
 8002a2e:	687b      	ldr	r3, [r7, #4]
 8002a30:	431a      	orrs	r2, r3
 8002a32:	6a3b      	ldr	r3, [r7, #32]
 8002a34:	431a      	orrs	r2, r3
 8002a36:	68fb      	ldr	r3, [r7, #12]
 8002a38:	681b      	ldr	r3, [r3, #0]
 8002a3a:	430a      	orrs	r2, r1
 8002a3c:	605a      	str	r2, [r3, #4]
 8002a3e:	46c0      	nop			; (mov r8, r8)
 8002a40:	46bd      	mov	sp, r7
 8002a42:	b005      	add	sp, #20
 8002a44:	bd90      	pop	{r4, r7, pc}
 8002a46:	46c0      	nop			; (mov r8, r8)
 8002a48:	03ff63ff 	.word	0x03ff63ff

08002a4c <I2C_Disable_IRQ>:
 8002a4c:	b580      	push	{r7, lr}
 8002a4e:	b084      	sub	sp, #16
 8002a50:	af00      	add	r7, sp, #0
 8002a52:	6078      	str	r0, [r7, #4]
 8002a54:	000a      	movs	r2, r1
 8002a56:	1cbb      	adds	r3, r7, #2
 8002a58:	801a      	strh	r2, [r3, #0]
 8002a5a:	2300      	movs	r3, #0
 8002a5c:	60fb      	str	r3, [r7, #12]
 8002a5e:	1cbb      	adds	r3, r7, #2
 8002a60:	881b      	ldrh	r3, [r3, #0]
 8002a62:	2201      	movs	r2, #1
 8002a64:	4013      	ands	r3, r2
 8002a66:	d010      	beq.n	8002a8a <I2C_Disable_IRQ+0x3e>
 8002a68:	68fb      	ldr	r3, [r7, #12]
 8002a6a:	2242      	movs	r2, #66	; 0x42
 8002a6c:	4313      	orrs	r3, r2
 8002a6e:	60fb      	str	r3, [r7, #12]
 8002a70:	687b      	ldr	r3, [r7, #4]
 8002a72:	2241      	movs	r2, #65	; 0x41
 8002a74:	5c9b      	ldrb	r3, [r3, r2]
 8002a76:	b2db      	uxtb	r3, r3
 8002a78:	001a      	movs	r2, r3
 8002a7a:	2328      	movs	r3, #40	; 0x28
 8002a7c:	4013      	ands	r3, r2
 8002a7e:	2b28      	cmp	r3, #40	; 0x28
 8002a80:	d003      	beq.n	8002a8a <I2C_Disable_IRQ+0x3e>
 8002a82:	68fb      	ldr	r3, [r7, #12]
 8002a84:	22b0      	movs	r2, #176	; 0xb0
 8002a86:	4313      	orrs	r3, r2
 8002a88:	60fb      	str	r3, [r7, #12]
 8002a8a:	1cbb      	adds	r3, r7, #2
 8002a8c:	881b      	ldrh	r3, [r3, #0]
 8002a8e:	2202      	movs	r2, #2
 8002a90:	4013      	ands	r3, r2
 8002a92:	d010      	beq.n	8002ab6 <I2C_Disable_IRQ+0x6a>
 8002a94:	68fb      	ldr	r3, [r7, #12]
 8002a96:	2244      	movs	r2, #68	; 0x44
 8002a98:	4313      	orrs	r3, r2
 8002a9a:	60fb      	str	r3, [r7, #12]
 8002a9c:	687b      	ldr	r3, [r7, #4]
 8002a9e:	2241      	movs	r2, #65	; 0x41
 8002aa0:	5c9b      	ldrb	r3, [r3, r2]
 8002aa2:	b2db      	uxtb	r3, r3
 8002aa4:	001a      	movs	r2, r3
 8002aa6:	2328      	movs	r3, #40	; 0x28
 8002aa8:	4013      	ands	r3, r2
 8002aaa:	2b28      	cmp	r3, #40	; 0x28
 8002aac:	d003      	beq.n	8002ab6 <I2C_Disable_IRQ+0x6a>
 8002aae:	68fb      	ldr	r3, [r7, #12]
 8002ab0:	22b0      	movs	r2, #176	; 0xb0
 8002ab2:	4313      	orrs	r3, r2
 8002ab4:	60fb      	str	r3, [r7, #12]
 8002ab6:	1cbb      	adds	r3, r7, #2
 8002ab8:	2200      	movs	r2, #0
 8002aba:	5e9b      	ldrsh	r3, [r3, r2]
 8002abc:	2b00      	cmp	r3, #0
 8002abe:	da03      	bge.n	8002ac8 <I2C_Disable_IRQ+0x7c>
 8002ac0:	68fb      	ldr	r3, [r7, #12]
 8002ac2:	22b8      	movs	r2, #184	; 0xb8
 8002ac4:	4313      	orrs	r3, r2
 8002ac6:	60fb      	str	r3, [r7, #12]
 8002ac8:	1cbb      	adds	r3, r7, #2
 8002aca:	881b      	ldrh	r3, [r3, #0]
 8002acc:	2b10      	cmp	r3, #16
 8002ace:	d103      	bne.n	8002ad8 <I2C_Disable_IRQ+0x8c>
 8002ad0:	68fb      	ldr	r3, [r7, #12]
 8002ad2:	2290      	movs	r2, #144	; 0x90
 8002ad4:	4313      	orrs	r3, r2
 8002ad6:	60fb      	str	r3, [r7, #12]
 8002ad8:	1cbb      	adds	r3, r7, #2
 8002ada:	881b      	ldrh	r3, [r3, #0]
 8002adc:	2b20      	cmp	r3, #32
 8002ade:	d103      	bne.n	8002ae8 <I2C_Disable_IRQ+0x9c>
 8002ae0:	68fb      	ldr	r3, [r7, #12]
 8002ae2:	2220      	movs	r2, #32
 8002ae4:	4313      	orrs	r3, r2
 8002ae6:	60fb      	str	r3, [r7, #12]
 8002ae8:	1cbb      	adds	r3, r7, #2
 8002aea:	881b      	ldrh	r3, [r3, #0]
 8002aec:	2b40      	cmp	r3, #64	; 0x40
 8002aee:	d103      	bne.n	8002af8 <I2C_Disable_IRQ+0xac>
 8002af0:	68fb      	ldr	r3, [r7, #12]
 8002af2:	2240      	movs	r2, #64	; 0x40
 8002af4:	4313      	orrs	r3, r2
 8002af6:	60fb      	str	r3, [r7, #12]
 8002af8:	687b      	ldr	r3, [r7, #4]
 8002afa:	681b      	ldr	r3, [r3, #0]
 8002afc:	681a      	ldr	r2, [r3, #0]
 8002afe:	68fb      	ldr	r3, [r7, #12]
 8002b00:	43d9      	mvns	r1, r3
 8002b02:	687b      	ldr	r3, [r7, #4]
 8002b04:	681b      	ldr	r3, [r3, #0]
 8002b06:	400a      	ands	r2, r1
 8002b08:	601a      	str	r2, [r3, #0]
 8002b0a:	46c0      	nop			; (mov r8, r8)
 8002b0c:	46bd      	mov	sp, r7
 8002b0e:	b004      	add	sp, #16
 8002b10:	bd80      	pop	{r7, pc}
	...

08002b14 <HAL_I2CEx_ConfigAnalogFilter>:
 8002b14:	b580      	push	{r7, lr}
 8002b16:	b082      	sub	sp, #8
 8002b18:	af00      	add	r7, sp, #0
 8002b1a:	6078      	str	r0, [r7, #4]
 8002b1c:	6039      	str	r1, [r7, #0]
 8002b1e:	687b      	ldr	r3, [r7, #4]
 8002b20:	2241      	movs	r2, #65	; 0x41
 8002b22:	5c9b      	ldrb	r3, [r3, r2]
 8002b24:	b2db      	uxtb	r3, r3
 8002b26:	2b20      	cmp	r3, #32
 8002b28:	d138      	bne.n	8002b9c <HAL_I2CEx_ConfigAnalogFilter+0x88>
 8002b2a:	687b      	ldr	r3, [r7, #4]
 8002b2c:	2240      	movs	r2, #64	; 0x40
 8002b2e:	5c9b      	ldrb	r3, [r3, r2]
 8002b30:	2b01      	cmp	r3, #1
 8002b32:	d101      	bne.n	8002b38 <HAL_I2CEx_ConfigAnalogFilter+0x24>
 8002b34:	2302      	movs	r3, #2
 8002b36:	e032      	b.n	8002b9e <HAL_I2CEx_ConfigAnalogFilter+0x8a>
 8002b38:	687b      	ldr	r3, [r7, #4]
 8002b3a:	2240      	movs	r2, #64	; 0x40
 8002b3c:	2101      	movs	r1, #1
 8002b3e:	5499      	strb	r1, [r3, r2]
 8002b40:	687b      	ldr	r3, [r7, #4]
 8002b42:	2241      	movs	r2, #65	; 0x41
 8002b44:	2124      	movs	r1, #36	; 0x24
 8002b46:	5499      	strb	r1, [r3, r2]
 8002b48:	687b      	ldr	r3, [r7, #4]
 8002b4a:	681b      	ldr	r3, [r3, #0]
 8002b4c:	681a      	ldr	r2, [r3, #0]
 8002b4e:	687b      	ldr	r3, [r7, #4]
 8002b50:	681b      	ldr	r3, [r3, #0]
 8002b52:	2101      	movs	r1, #1
 8002b54:	438a      	bics	r2, r1
 8002b56:	601a      	str	r2, [r3, #0]
 8002b58:	687b      	ldr	r3, [r7, #4]
 8002b5a:	681b      	ldr	r3, [r3, #0]
 8002b5c:	681a      	ldr	r2, [r3, #0]
 8002b5e:	687b      	ldr	r3, [r7, #4]
 8002b60:	681b      	ldr	r3, [r3, #0]
 8002b62:	4911      	ldr	r1, [pc, #68]	; (8002ba8 <HAL_I2CEx_ConfigAnalogFilter+0x94>)
 8002b64:	400a      	ands	r2, r1
 8002b66:	601a      	str	r2, [r3, #0]
 8002b68:	687b      	ldr	r3, [r7, #4]
 8002b6a:	681b      	ldr	r3, [r3, #0]
 8002b6c:	6819      	ldr	r1, [r3, #0]
 8002b6e:	687b      	ldr	r3, [r7, #4]
 8002b70:	681b      	ldr	r3, [r3, #0]
 8002b72:	683a      	ldr	r2, [r7, #0]
 8002b74:	430a      	orrs	r2, r1
 8002b76:	601a      	str	r2, [r3, #0]
 8002b78:	687b      	ldr	r3, [r7, #4]
 8002b7a:	681b      	ldr	r3, [r3, #0]
 8002b7c:	681a      	ldr	r2, [r3, #0]
 8002b7e:	687b      	ldr	r3, [r7, #4]
 8002b80:	681b      	ldr	r3, [r3, #0]
 8002b82:	2101      	movs	r1, #1
 8002b84:	430a      	orrs	r2, r1
 8002b86:	601a      	str	r2, [r3, #0]
 8002b88:	687b      	ldr	r3, [r7, #4]
 8002b8a:	2241      	movs	r2, #65	; 0x41
 8002b8c:	2120      	movs	r1, #32
 8002b8e:	5499      	strb	r1, [r3, r2]
 8002b90:	687b      	ldr	r3, [r7, #4]
 8002b92:	2240      	movs	r2, #64	; 0x40
 8002b94:	2100      	movs	r1, #0
 8002b96:	5499      	strb	r1, [r3, r2]
 8002b98:	2300      	movs	r3, #0
 8002b9a:	e000      	b.n	8002b9e <HAL_I2CEx_ConfigAnalogFilter+0x8a>
 8002b9c:	2302      	movs	r3, #2
 8002b9e:	0018      	movs	r0, r3
 8002ba0:	46bd      	mov	sp, r7
 8002ba2:	b002      	add	sp, #8
 8002ba4:	bd80      	pop	{r7, pc}
 8002ba6:	46c0      	nop			; (mov r8, r8)
 8002ba8:	ffffefff 	.word	0xffffefff

08002bac <HAL_I2CEx_ConfigDigitalFilter>:
 8002bac:	b580      	push	{r7, lr}
 8002bae:	b084      	sub	sp, #16
 8002bb0:	af00      	add	r7, sp, #0
 8002bb2:	6078      	str	r0, [r7, #4]
 8002bb4:	6039      	str	r1, [r7, #0]
 8002bb6:	687b      	ldr	r3, [r7, #4]
 8002bb8:	2241      	movs	r2, #65	; 0x41
 8002bba:	5c9b      	ldrb	r3, [r3, r2]
 8002bbc:	b2db      	uxtb	r3, r3
 8002bbe:	2b20      	cmp	r3, #32
 8002bc0:	d139      	bne.n	8002c36 <HAL_I2CEx_ConfigDigitalFilter+0x8a>
 8002bc2:	687b      	ldr	r3, [r7, #4]
 8002bc4:	2240      	movs	r2, #64	; 0x40
 8002bc6:	5c9b      	ldrb	r3, [r3, r2]
 8002bc8:	2b01      	cmp	r3, #1
 8002bca:	d101      	bne.n	8002bd0 <HAL_I2CEx_ConfigDigitalFilter+0x24>
 8002bcc:	2302      	movs	r3, #2
 8002bce:	e033      	b.n	8002c38 <HAL_I2CEx_ConfigDigitalFilter+0x8c>
 8002bd0:	687b      	ldr	r3, [r7, #4]
 8002bd2:	2240      	movs	r2, #64	; 0x40
 8002bd4:	2101      	movs	r1, #1
 8002bd6:	5499      	strb	r1, [r3, r2]
 8002bd8:	687b      	ldr	r3, [r7, #4]
 8002bda:	2241      	movs	r2, #65	; 0x41
 8002bdc:	2124      	movs	r1, #36	; 0x24
 8002bde:	5499      	strb	r1, [r3, r2]
 8002be0:	687b      	ldr	r3, [r7, #4]
 8002be2:	681b      	ldr	r3, [r3, #0]
 8002be4:	681a      	ldr	r2, [r3, #0]
 8002be6:	687b      	ldr	r3, [r7, #4]
 8002be8:	681b      	ldr	r3, [r3, #0]
 8002bea:	2101      	movs	r1, #1
 8002bec:	438a      	bics	r2, r1
 8002bee:	601a      	str	r2, [r3, #0]
 8002bf0:	687b      	ldr	r3, [r7, #4]
 8002bf2:	681b      	ldr	r3, [r3, #0]
 8002bf4:	681b      	ldr	r3, [r3, #0]
 8002bf6:	60fb      	str	r3, [r7, #12]
 8002bf8:	68fb      	ldr	r3, [r7, #12]
 8002bfa:	4a11      	ldr	r2, [pc, #68]	; (8002c40 <HAL_I2CEx_ConfigDigitalFilter+0x94>)
 8002bfc:	4013      	ands	r3, r2
 8002bfe:	60fb      	str	r3, [r7, #12]
 8002c00:	683b      	ldr	r3, [r7, #0]
 8002c02:	021b      	lsls	r3, r3, #8
 8002c04:	68fa      	ldr	r2, [r7, #12]
 8002c06:	4313      	orrs	r3, r2
 8002c08:	60fb      	str	r3, [r7, #12]
 8002c0a:	687b      	ldr	r3, [r7, #4]
 8002c0c:	681b      	ldr	r3, [r3, #0]
 8002c0e:	68fa      	ldr	r2, [r7, #12]
 8002c10:	601a      	str	r2, [r3, #0]
 8002c12:	687b      	ldr	r3, [r7, #4]
 8002c14:	681b      	ldr	r3, [r3, #0]
 8002c16:	681a      	ldr	r2, [r3, #0]
 8002c18:	687b      	ldr	r3, [r7, #4]
 8002c1a:	681b      	ldr	r3, [r3, #0]
 8002c1c:	2101      	movs	r1, #1
 8002c1e:	430a      	orrs	r2, r1
 8002c20:	601a      	str	r2, [r3, #0]
 8002c22:	687b      	ldr	r3, [r7, #4]
 8002c24:	2241      	movs	r2, #65	; 0x41
 8002c26:	2120      	movs	r1, #32
 8002c28:	5499      	strb	r1, [r3, r2]
 8002c2a:	687b      	ldr	r3, [r7, #4]
 8002c2c:	2240      	movs	r2, #64	; 0x40
 8002c2e:	2100      	movs	r1, #0
 8002c30:	5499      	strb	r1, [r3, r2]
 8002c32:	2300      	movs	r3, #0
 8002c34:	e000      	b.n	8002c38 <HAL_I2CEx_ConfigDigitalFilter+0x8c>
 8002c36:	2302      	movs	r3, #2
 8002c38:	0018      	movs	r0, r3
 8002c3a:	46bd      	mov	sp, r7
 8002c3c:	b004      	add	sp, #16
 8002c3e:	bd80      	pop	{r7, pc}
 8002c40:	fffff0ff 	.word	0xfffff0ff

08002c44 <HAL_RCC_OscConfig>:
 8002c44:	b580      	push	{r7, lr}
 8002c46:	b088      	sub	sp, #32
 8002c48:	af00      	add	r7, sp, #0
 8002c4a:	6078      	str	r0, [r7, #4]
 8002c4c:	687b      	ldr	r3, [r7, #4]
 8002c4e:	2b00      	cmp	r3, #0
 8002c50:	d101      	bne.n	8002c56 <HAL_RCC_OscConfig+0x12>
 8002c52:	2301      	movs	r3, #1
 8002c54:	e301      	b.n	800325a <HAL_RCC_OscConfig+0x616>
 8002c56:	687b      	ldr	r3, [r7, #4]
 8002c58:	681b      	ldr	r3, [r3, #0]
 8002c5a:	2201      	movs	r2, #1
 8002c5c:	4013      	ands	r3, r2
 8002c5e:	d100      	bne.n	8002c62 <HAL_RCC_OscConfig+0x1e>
 8002c60:	e08d      	b.n	8002d7e <HAL_RCC_OscConfig+0x13a>
 8002c62:	4bc3      	ldr	r3, [pc, #780]	; (8002f70 <HAL_RCC_OscConfig+0x32c>)
 8002c64:	685b      	ldr	r3, [r3, #4]
 8002c66:	220c      	movs	r2, #12
 8002c68:	4013      	ands	r3, r2
 8002c6a:	2b04      	cmp	r3, #4
 8002c6c:	d00e      	beq.n	8002c8c <HAL_RCC_OscConfig+0x48>
 8002c6e:	4bc0      	ldr	r3, [pc, #768]	; (8002f70 <HAL_RCC_OscConfig+0x32c>)
 8002c70:	685b      	ldr	r3, [r3, #4]
 8002c72:	220c      	movs	r2, #12
 8002c74:	4013      	ands	r3, r2
 8002c76:	2b08      	cmp	r3, #8
 8002c78:	d116      	bne.n	8002ca8 <HAL_RCC_OscConfig+0x64>
 8002c7a:	4bbd      	ldr	r3, [pc, #756]	; (8002f70 <HAL_RCC_OscConfig+0x32c>)
 8002c7c:	685a      	ldr	r2, [r3, #4]
 8002c7e:	2380      	movs	r3, #128	; 0x80
 8002c80:	025b      	lsls	r3, r3, #9
 8002c82:	401a      	ands	r2, r3
 8002c84:	2380      	movs	r3, #128	; 0x80
 8002c86:	025b      	lsls	r3, r3, #9
 8002c88:	429a      	cmp	r2, r3
 8002c8a:	d10d      	bne.n	8002ca8 <HAL_RCC_OscConfig+0x64>
 8002c8c:	4bb8      	ldr	r3, [pc, #736]	; (8002f70 <HAL_RCC_OscConfig+0x32c>)
 8002c8e:	681a      	ldr	r2, [r3, #0]
 8002c90:	2380      	movs	r3, #128	; 0x80
 8002c92:	029b      	lsls	r3, r3, #10
 8002c94:	4013      	ands	r3, r2
 8002c96:	d100      	bne.n	8002c9a <HAL_RCC_OscConfig+0x56>
 8002c98:	e070      	b.n	8002d7c <HAL_RCC_OscConfig+0x138>
 8002c9a:	687b      	ldr	r3, [r7, #4]
 8002c9c:	685b      	ldr	r3, [r3, #4]
 8002c9e:	2b00      	cmp	r3, #0
 8002ca0:	d000      	beq.n	8002ca4 <HAL_RCC_OscConfig+0x60>
 8002ca2:	e06b      	b.n	8002d7c <HAL_RCC_OscConfig+0x138>
 8002ca4:	2301      	movs	r3, #1
 8002ca6:	e2d8      	b.n	800325a <HAL_RCC_OscConfig+0x616>
 8002ca8:	687b      	ldr	r3, [r7, #4]
 8002caa:	685b      	ldr	r3, [r3, #4]
 8002cac:	2b01      	cmp	r3, #1
 8002cae:	d107      	bne.n	8002cc0 <HAL_RCC_OscConfig+0x7c>
 8002cb0:	4baf      	ldr	r3, [pc, #700]	; (8002f70 <HAL_RCC_OscConfig+0x32c>)
 8002cb2:	681a      	ldr	r2, [r3, #0]
 8002cb4:	4bae      	ldr	r3, [pc, #696]	; (8002f70 <HAL_RCC_OscConfig+0x32c>)
 8002cb6:	2180      	movs	r1, #128	; 0x80
 8002cb8:	0249      	lsls	r1, r1, #9
 8002cba:	430a      	orrs	r2, r1
 8002cbc:	601a      	str	r2, [r3, #0]
 8002cbe:	e02f      	b.n	8002d20 <HAL_RCC_OscConfig+0xdc>
 8002cc0:	687b      	ldr	r3, [r7, #4]
 8002cc2:	685b      	ldr	r3, [r3, #4]
 8002cc4:	2b00      	cmp	r3, #0
 8002cc6:	d10c      	bne.n	8002ce2 <HAL_RCC_OscConfig+0x9e>
 8002cc8:	4ba9      	ldr	r3, [pc, #676]	; (8002f70 <HAL_RCC_OscConfig+0x32c>)
 8002cca:	681a      	ldr	r2, [r3, #0]
 8002ccc:	4ba8      	ldr	r3, [pc, #672]	; (8002f70 <HAL_RCC_OscConfig+0x32c>)
 8002cce:	49a9      	ldr	r1, [pc, #676]	; (8002f74 <HAL_RCC_OscConfig+0x330>)
 8002cd0:	400a      	ands	r2, r1
 8002cd2:	601a      	str	r2, [r3, #0]
 8002cd4:	4ba6      	ldr	r3, [pc, #664]	; (8002f70 <HAL_RCC_OscConfig+0x32c>)
 8002cd6:	681a      	ldr	r2, [r3, #0]
 8002cd8:	4ba5      	ldr	r3, [pc, #660]	; (8002f70 <HAL_RCC_OscConfig+0x32c>)
 8002cda:	49a7      	ldr	r1, [pc, #668]	; (8002f78 <HAL_RCC_OscConfig+0x334>)
 8002cdc:	400a      	ands	r2, r1
 8002cde:	601a      	str	r2, [r3, #0]
 8002ce0:	e01e      	b.n	8002d20 <HAL_RCC_OscConfig+0xdc>
 8002ce2:	687b      	ldr	r3, [r7, #4]
 8002ce4:	685b      	ldr	r3, [r3, #4]
 8002ce6:	2b05      	cmp	r3, #5
 8002ce8:	d10e      	bne.n	8002d08 <HAL_RCC_OscConfig+0xc4>
 8002cea:	4ba1      	ldr	r3, [pc, #644]	; (8002f70 <HAL_RCC_OscConfig+0x32c>)
 8002cec:	681a      	ldr	r2, [r3, #0]
 8002cee:	4ba0      	ldr	r3, [pc, #640]	; (8002f70 <HAL_RCC_OscConfig+0x32c>)
 8002cf0:	2180      	movs	r1, #128	; 0x80
 8002cf2:	02c9      	lsls	r1, r1, #11
 8002cf4:	430a      	orrs	r2, r1
 8002cf6:	601a      	str	r2, [r3, #0]
 8002cf8:	4b9d      	ldr	r3, [pc, #628]	; (8002f70 <HAL_RCC_OscConfig+0x32c>)
 8002cfa:	681a      	ldr	r2, [r3, #0]
 8002cfc:	4b9c      	ldr	r3, [pc, #624]	; (8002f70 <HAL_RCC_OscConfig+0x32c>)
 8002cfe:	2180      	movs	r1, #128	; 0x80
 8002d00:	0249      	lsls	r1, r1, #9
 8002d02:	430a      	orrs	r2, r1
 8002d04:	601a      	str	r2, [r3, #0]
 8002d06:	e00b      	b.n	8002d20 <HAL_RCC_OscConfig+0xdc>
 8002d08:	4b99      	ldr	r3, [pc, #612]	; (8002f70 <HAL_RCC_OscConfig+0x32c>)
 8002d0a:	681a      	ldr	r2, [r3, #0]
 8002d0c:	4b98      	ldr	r3, [pc, #608]	; (8002f70 <HAL_RCC_OscConfig+0x32c>)
 8002d0e:	4999      	ldr	r1, [pc, #612]	; (8002f74 <HAL_RCC_OscConfig+0x330>)
 8002d10:	400a      	ands	r2, r1
 8002d12:	601a      	str	r2, [r3, #0]
 8002d14:	4b96      	ldr	r3, [pc, #600]	; (8002f70 <HAL_RCC_OscConfig+0x32c>)
 8002d16:	681a      	ldr	r2, [r3, #0]
 8002d18:	4b95      	ldr	r3, [pc, #596]	; (8002f70 <HAL_RCC_OscConfig+0x32c>)
 8002d1a:	4997      	ldr	r1, [pc, #604]	; (8002f78 <HAL_RCC_OscConfig+0x334>)
 8002d1c:	400a      	ands	r2, r1
 8002d1e:	601a      	str	r2, [r3, #0]
 8002d20:	687b      	ldr	r3, [r7, #4]
 8002d22:	685b      	ldr	r3, [r3, #4]
 8002d24:	2b00      	cmp	r3, #0
 8002d26:	d014      	beq.n	8002d52 <HAL_RCC_OscConfig+0x10e>
 8002d28:	f7fe f8aa 	bl	8000e80 <HAL_GetTick>
 8002d2c:	0003      	movs	r3, r0
 8002d2e:	61bb      	str	r3, [r7, #24]
 8002d30:	e008      	b.n	8002d44 <HAL_RCC_OscConfig+0x100>
 8002d32:	f7fe f8a5 	bl	8000e80 <HAL_GetTick>
 8002d36:	0002      	movs	r2, r0
 8002d38:	69bb      	ldr	r3, [r7, #24]
 8002d3a:	1ad3      	subs	r3, r2, r3
 8002d3c:	2b64      	cmp	r3, #100	; 0x64
 8002d3e:	d901      	bls.n	8002d44 <HAL_RCC_OscConfig+0x100>
 8002d40:	2303      	movs	r3, #3
 8002d42:	e28a      	b.n	800325a <HAL_RCC_OscConfig+0x616>
 8002d44:	4b8a      	ldr	r3, [pc, #552]	; (8002f70 <HAL_RCC_OscConfig+0x32c>)
 8002d46:	681a      	ldr	r2, [r3, #0]
 8002d48:	2380      	movs	r3, #128	; 0x80
 8002d4a:	029b      	lsls	r3, r3, #10
 8002d4c:	4013      	ands	r3, r2
 8002d4e:	d0f0      	beq.n	8002d32 <HAL_RCC_OscConfig+0xee>
 8002d50:	e015      	b.n	8002d7e <HAL_RCC_OscConfig+0x13a>
 8002d52:	f7fe f895 	bl	8000e80 <HAL_GetTick>
 8002d56:	0003      	movs	r3, r0
 8002d58:	61bb      	str	r3, [r7, #24]
 8002d5a:	e008      	b.n	8002d6e <HAL_RCC_OscConfig+0x12a>
 8002d5c:	f7fe f890 	bl	8000e80 <HAL_GetTick>
 8002d60:	0002      	movs	r2, r0
 8002d62:	69bb      	ldr	r3, [r7, #24]
 8002d64:	1ad3      	subs	r3, r2, r3
 8002d66:	2b64      	cmp	r3, #100	; 0x64
 8002d68:	d901      	bls.n	8002d6e <HAL_RCC_OscConfig+0x12a>
 8002d6a:	2303      	movs	r3, #3
 8002d6c:	e275      	b.n	800325a <HAL_RCC_OscConfig+0x616>
 8002d6e:	4b80      	ldr	r3, [pc, #512]	; (8002f70 <HAL_RCC_OscConfig+0x32c>)
 8002d70:	681a      	ldr	r2, [r3, #0]
 8002d72:	2380      	movs	r3, #128	; 0x80
 8002d74:	029b      	lsls	r3, r3, #10
 8002d76:	4013      	ands	r3, r2
 8002d78:	d1f0      	bne.n	8002d5c <HAL_RCC_OscConfig+0x118>
 8002d7a:	e000      	b.n	8002d7e <HAL_RCC_OscConfig+0x13a>
 8002d7c:	46c0      	nop			; (mov r8, r8)
 8002d7e:	687b      	ldr	r3, [r7, #4]
 8002d80:	681b      	ldr	r3, [r3, #0]
 8002d82:	2202      	movs	r2, #2
 8002d84:	4013      	ands	r3, r2
 8002d86:	d100      	bne.n	8002d8a <HAL_RCC_OscConfig+0x146>
 8002d88:	e069      	b.n	8002e5e <HAL_RCC_OscConfig+0x21a>
 8002d8a:	4b79      	ldr	r3, [pc, #484]	; (8002f70 <HAL_RCC_OscConfig+0x32c>)
 8002d8c:	685b      	ldr	r3, [r3, #4]
 8002d8e:	220c      	movs	r2, #12
 8002d90:	4013      	ands	r3, r2
 8002d92:	d00b      	beq.n	8002dac <HAL_RCC_OscConfig+0x168>
 8002d94:	4b76      	ldr	r3, [pc, #472]	; (8002f70 <HAL_RCC_OscConfig+0x32c>)
 8002d96:	685b      	ldr	r3, [r3, #4]
 8002d98:	220c      	movs	r2, #12
 8002d9a:	4013      	ands	r3, r2
 8002d9c:	2b08      	cmp	r3, #8
 8002d9e:	d11c      	bne.n	8002dda <HAL_RCC_OscConfig+0x196>
 8002da0:	4b73      	ldr	r3, [pc, #460]	; (8002f70 <HAL_RCC_OscConfig+0x32c>)
 8002da2:	685a      	ldr	r2, [r3, #4]
 8002da4:	2380      	movs	r3, #128	; 0x80
 8002da6:	025b      	lsls	r3, r3, #9
 8002da8:	4013      	ands	r3, r2
 8002daa:	d116      	bne.n	8002dda <HAL_RCC_OscConfig+0x196>
 8002dac:	4b70      	ldr	r3, [pc, #448]	; (8002f70 <HAL_RCC_OscConfig+0x32c>)
 8002dae:	681b      	ldr	r3, [r3, #0]
 8002db0:	2202      	movs	r2, #2
 8002db2:	4013      	ands	r3, r2
 8002db4:	d005      	beq.n	8002dc2 <HAL_RCC_OscConfig+0x17e>
 8002db6:	687b      	ldr	r3, [r7, #4]
 8002db8:	68db      	ldr	r3, [r3, #12]
 8002dba:	2b01      	cmp	r3, #1
 8002dbc:	d001      	beq.n	8002dc2 <HAL_RCC_OscConfig+0x17e>
 8002dbe:	2301      	movs	r3, #1
 8002dc0:	e24b      	b.n	800325a <HAL_RCC_OscConfig+0x616>
 8002dc2:	4b6b      	ldr	r3, [pc, #428]	; (8002f70 <HAL_RCC_OscConfig+0x32c>)
 8002dc4:	681b      	ldr	r3, [r3, #0]
 8002dc6:	22f8      	movs	r2, #248	; 0xf8
 8002dc8:	4393      	bics	r3, r2
 8002dca:	0019      	movs	r1, r3
 8002dcc:	687b      	ldr	r3, [r7, #4]
 8002dce:	691b      	ldr	r3, [r3, #16]
 8002dd0:	00da      	lsls	r2, r3, #3
 8002dd2:	4b67      	ldr	r3, [pc, #412]	; (8002f70 <HAL_RCC_OscConfig+0x32c>)
 8002dd4:	430a      	orrs	r2, r1
 8002dd6:	601a      	str	r2, [r3, #0]
 8002dd8:	e041      	b.n	8002e5e <HAL_RCC_OscConfig+0x21a>
 8002dda:	687b      	ldr	r3, [r7, #4]
 8002ddc:	68db      	ldr	r3, [r3, #12]
 8002dde:	2b00      	cmp	r3, #0
 8002de0:	d024      	beq.n	8002e2c <HAL_RCC_OscConfig+0x1e8>
 8002de2:	4b63      	ldr	r3, [pc, #396]	; (8002f70 <HAL_RCC_OscConfig+0x32c>)
 8002de4:	681a      	ldr	r2, [r3, #0]
 8002de6:	4b62      	ldr	r3, [pc, #392]	; (8002f70 <HAL_RCC_OscConfig+0x32c>)
 8002de8:	2101      	movs	r1, #1
 8002dea:	430a      	orrs	r2, r1
 8002dec:	601a      	str	r2, [r3, #0]
 8002dee:	f7fe f847 	bl	8000e80 <HAL_GetTick>
 8002df2:	0003      	movs	r3, r0
 8002df4:	61bb      	str	r3, [r7, #24]
 8002df6:	e008      	b.n	8002e0a <HAL_RCC_OscConfig+0x1c6>
 8002df8:	f7fe f842 	bl	8000e80 <HAL_GetTick>
 8002dfc:	0002      	movs	r2, r0
 8002dfe:	69bb      	ldr	r3, [r7, #24]
 8002e00:	1ad3      	subs	r3, r2, r3
 8002e02:	2b02      	cmp	r3, #2
 8002e04:	d901      	bls.n	8002e0a <HAL_RCC_OscConfig+0x1c6>
 8002e06:	2303      	movs	r3, #3
 8002e08:	e227      	b.n	800325a <HAL_RCC_OscConfig+0x616>
 8002e0a:	4b59      	ldr	r3, [pc, #356]	; (8002f70 <HAL_RCC_OscConfig+0x32c>)
 8002e0c:	681b      	ldr	r3, [r3, #0]
 8002e0e:	2202      	movs	r2, #2
 8002e10:	4013      	ands	r3, r2
 8002e12:	d0f1      	beq.n	8002df8 <HAL_RCC_OscConfig+0x1b4>
 8002e14:	4b56      	ldr	r3, [pc, #344]	; (8002f70 <HAL_RCC_OscConfig+0x32c>)
 8002e16:	681b      	ldr	r3, [r3, #0]
 8002e18:	22f8      	movs	r2, #248	; 0xf8
 8002e1a:	4393      	bics	r3, r2
 8002e1c:	0019      	movs	r1, r3
 8002e1e:	687b      	ldr	r3, [r7, #4]
 8002e20:	691b      	ldr	r3, [r3, #16]
 8002e22:	00da      	lsls	r2, r3, #3
 8002e24:	4b52      	ldr	r3, [pc, #328]	; (8002f70 <HAL_RCC_OscConfig+0x32c>)
 8002e26:	430a      	orrs	r2, r1
 8002e28:	601a      	str	r2, [r3, #0]
 8002e2a:	e018      	b.n	8002e5e <HAL_RCC_OscConfig+0x21a>
 8002e2c:	4b50      	ldr	r3, [pc, #320]	; (8002f70 <HAL_RCC_OscConfig+0x32c>)
 8002e2e:	681a      	ldr	r2, [r3, #0]
 8002e30:	4b4f      	ldr	r3, [pc, #316]	; (8002f70 <HAL_RCC_OscConfig+0x32c>)
 8002e32:	2101      	movs	r1, #1
 8002e34:	438a      	bics	r2, r1
 8002e36:	601a      	str	r2, [r3, #0]
 8002e38:	f7fe f822 	bl	8000e80 <HAL_GetTick>
 8002e3c:	0003      	movs	r3, r0
 8002e3e:	61bb      	str	r3, [r7, #24]
 8002e40:	e008      	b.n	8002e54 <HAL_RCC_OscConfig+0x210>
 8002e42:	f7fe f81d 	bl	8000e80 <HAL_GetTick>
 8002e46:	0002      	movs	r2, r0
 8002e48:	69bb      	ldr	r3, [r7, #24]
 8002e4a:	1ad3      	subs	r3, r2, r3
 8002e4c:	2b02      	cmp	r3, #2
 8002e4e:	d901      	bls.n	8002e54 <HAL_RCC_OscConfig+0x210>
 8002e50:	2303      	movs	r3, #3
 8002e52:	e202      	b.n	800325a <HAL_RCC_OscConfig+0x616>
 8002e54:	4b46      	ldr	r3, [pc, #280]	; (8002f70 <HAL_RCC_OscConfig+0x32c>)
 8002e56:	681b      	ldr	r3, [r3, #0]
 8002e58:	2202      	movs	r2, #2
 8002e5a:	4013      	ands	r3, r2
 8002e5c:	d1f1      	bne.n	8002e42 <HAL_RCC_OscConfig+0x1fe>
 8002e5e:	687b      	ldr	r3, [r7, #4]
 8002e60:	681b      	ldr	r3, [r3, #0]
 8002e62:	2208      	movs	r2, #8
 8002e64:	4013      	ands	r3, r2
 8002e66:	d036      	beq.n	8002ed6 <HAL_RCC_OscConfig+0x292>
 8002e68:	687b      	ldr	r3, [r7, #4]
 8002e6a:	69db      	ldr	r3, [r3, #28]
 8002e6c:	2b00      	cmp	r3, #0
 8002e6e:	d019      	beq.n	8002ea4 <HAL_RCC_OscConfig+0x260>
 8002e70:	4b3f      	ldr	r3, [pc, #252]	; (8002f70 <HAL_RCC_OscConfig+0x32c>)
 8002e72:	6a5a      	ldr	r2, [r3, #36]	; 0x24
 8002e74:	4b3e      	ldr	r3, [pc, #248]	; (8002f70 <HAL_RCC_OscConfig+0x32c>)
 8002e76:	2101      	movs	r1, #1
 8002e78:	430a      	orrs	r2, r1
 8002e7a:	625a      	str	r2, [r3, #36]	; 0x24
 8002e7c:	f7fe f800 	bl	8000e80 <HAL_GetTick>
 8002e80:	0003      	movs	r3, r0
 8002e82:	61bb      	str	r3, [r7, #24]
 8002e84:	e008      	b.n	8002e98 <HAL_RCC_OscConfig+0x254>
 8002e86:	f7fd fffb 	bl	8000e80 <HAL_GetTick>
 8002e8a:	0002      	movs	r2, r0
 8002e8c:	69bb      	ldr	r3, [r7, #24]
 8002e8e:	1ad3      	subs	r3, r2, r3
 8002e90:	2b02      	cmp	r3, #2
 8002e92:	d901      	bls.n	8002e98 <HAL_RCC_OscConfig+0x254>
 8002e94:	2303      	movs	r3, #3
 8002e96:	e1e0      	b.n	800325a <HAL_RCC_OscConfig+0x616>
 8002e98:	4b35      	ldr	r3, [pc, #212]	; (8002f70 <HAL_RCC_OscConfig+0x32c>)
 8002e9a:	6a5b      	ldr	r3, [r3, #36]	; 0x24
 8002e9c:	2202      	movs	r2, #2
 8002e9e:	4013      	ands	r3, r2
 8002ea0:	d0f1      	beq.n	8002e86 <HAL_RCC_OscConfig+0x242>
 8002ea2:	e018      	b.n	8002ed6 <HAL_RCC_OscConfig+0x292>
 8002ea4:	4b32      	ldr	r3, [pc, #200]	; (8002f70 <HAL_RCC_OscConfig+0x32c>)
 8002ea6:	6a5a      	ldr	r2, [r3, #36]	; 0x24
 8002ea8:	4b31      	ldr	r3, [pc, #196]	; (8002f70 <HAL_RCC_OscConfig+0x32c>)
 8002eaa:	2101      	movs	r1, #1
 8002eac:	438a      	bics	r2, r1
 8002eae:	625a      	str	r2, [r3, #36]	; 0x24
 8002eb0:	f7fd ffe6 	bl	8000e80 <HAL_GetTick>
 8002eb4:	0003      	movs	r3, r0
 8002eb6:	61bb      	str	r3, [r7, #24]
 8002eb8:	e008      	b.n	8002ecc <HAL_RCC_OscConfig+0x288>
 8002eba:	f7fd ffe1 	bl	8000e80 <HAL_GetTick>
 8002ebe:	0002      	movs	r2, r0
 8002ec0:	69bb      	ldr	r3, [r7, #24]
 8002ec2:	1ad3      	subs	r3, r2, r3
 8002ec4:	2b02      	cmp	r3, #2
 8002ec6:	d901      	bls.n	8002ecc <HAL_RCC_OscConfig+0x288>
 8002ec8:	2303      	movs	r3, #3
 8002eca:	e1c6      	b.n	800325a <HAL_RCC_OscConfig+0x616>
 8002ecc:	4b28      	ldr	r3, [pc, #160]	; (8002f70 <HAL_RCC_OscConfig+0x32c>)
 8002ece:	6a5b      	ldr	r3, [r3, #36]	; 0x24
 8002ed0:	2202      	movs	r2, #2
 8002ed2:	4013      	ands	r3, r2
 8002ed4:	d1f1      	bne.n	8002eba <HAL_RCC_OscConfig+0x276>
 8002ed6:	687b      	ldr	r3, [r7, #4]
 8002ed8:	681b      	ldr	r3, [r3, #0]
 8002eda:	2204      	movs	r2, #4
 8002edc:	4013      	ands	r3, r2
 8002ede:	d100      	bne.n	8002ee2 <HAL_RCC_OscConfig+0x29e>
 8002ee0:	e0b4      	b.n	800304c <HAL_RCC_OscConfig+0x408>
 8002ee2:	201f      	movs	r0, #31
 8002ee4:	183b      	adds	r3, r7, r0
 8002ee6:	2200      	movs	r2, #0
 8002ee8:	701a      	strb	r2, [r3, #0]
 8002eea:	4b21      	ldr	r3, [pc, #132]	; (8002f70 <HAL_RCC_OscConfig+0x32c>)
 8002eec:	69da      	ldr	r2, [r3, #28]
 8002eee:	2380      	movs	r3, #128	; 0x80
 8002ef0:	055b      	lsls	r3, r3, #21
 8002ef2:	4013      	ands	r3, r2
 8002ef4:	d110      	bne.n	8002f18 <HAL_RCC_OscConfig+0x2d4>
 8002ef6:	4b1e      	ldr	r3, [pc, #120]	; (8002f70 <HAL_RCC_OscConfig+0x32c>)
 8002ef8:	69da      	ldr	r2, [r3, #28]
 8002efa:	4b1d      	ldr	r3, [pc, #116]	; (8002f70 <HAL_RCC_OscConfig+0x32c>)
 8002efc:	2180      	movs	r1, #128	; 0x80
 8002efe:	0549      	lsls	r1, r1, #21
 8002f00:	430a      	orrs	r2, r1
 8002f02:	61da      	str	r2, [r3, #28]
 8002f04:	4b1a      	ldr	r3, [pc, #104]	; (8002f70 <HAL_RCC_OscConfig+0x32c>)
 8002f06:	69da      	ldr	r2, [r3, #28]
 8002f08:	2380      	movs	r3, #128	; 0x80
 8002f0a:	055b      	lsls	r3, r3, #21
 8002f0c:	4013      	ands	r3, r2
 8002f0e:	60fb      	str	r3, [r7, #12]
 8002f10:	68fb      	ldr	r3, [r7, #12]
 8002f12:	183b      	adds	r3, r7, r0
 8002f14:	2201      	movs	r2, #1
 8002f16:	701a      	strb	r2, [r3, #0]
 8002f18:	4b18      	ldr	r3, [pc, #96]	; (8002f7c <HAL_RCC_OscConfig+0x338>)
 8002f1a:	681a      	ldr	r2, [r3, #0]
 8002f1c:	2380      	movs	r3, #128	; 0x80
 8002f1e:	005b      	lsls	r3, r3, #1
 8002f20:	4013      	ands	r3, r2
 8002f22:	d11a      	bne.n	8002f5a <HAL_RCC_OscConfig+0x316>
 8002f24:	4b15      	ldr	r3, [pc, #84]	; (8002f7c <HAL_RCC_OscConfig+0x338>)
 8002f26:	681a      	ldr	r2, [r3, #0]
 8002f28:	4b14      	ldr	r3, [pc, #80]	; (8002f7c <HAL_RCC_OscConfig+0x338>)
 8002f2a:	2180      	movs	r1, #128	; 0x80
 8002f2c:	0049      	lsls	r1, r1, #1
 8002f2e:	430a      	orrs	r2, r1
 8002f30:	601a      	str	r2, [r3, #0]
 8002f32:	f7fd ffa5 	bl	8000e80 <HAL_GetTick>
 8002f36:	0003      	movs	r3, r0
 8002f38:	61bb      	str	r3, [r7, #24]
 8002f3a:	e008      	b.n	8002f4e <HAL_RCC_OscConfig+0x30a>
 8002f3c:	f7fd ffa0 	bl	8000e80 <HAL_GetTick>
 8002f40:	0002      	movs	r2, r0
 8002f42:	69bb      	ldr	r3, [r7, #24]
 8002f44:	1ad3      	subs	r3, r2, r3
 8002f46:	2b64      	cmp	r3, #100	; 0x64
 8002f48:	d901      	bls.n	8002f4e <HAL_RCC_OscConfig+0x30a>
 8002f4a:	2303      	movs	r3, #3
 8002f4c:	e185      	b.n	800325a <HAL_RCC_OscConfig+0x616>
 8002f4e:	4b0b      	ldr	r3, [pc, #44]	; (8002f7c <HAL_RCC_OscConfig+0x338>)
 8002f50:	681a      	ldr	r2, [r3, #0]
 8002f52:	2380      	movs	r3, #128	; 0x80
 8002f54:	005b      	lsls	r3, r3, #1
 8002f56:	4013      	ands	r3, r2
 8002f58:	d0f0      	beq.n	8002f3c <HAL_RCC_OscConfig+0x2f8>
 8002f5a:	687b      	ldr	r3, [r7, #4]
 8002f5c:	689b      	ldr	r3, [r3, #8]
 8002f5e:	2b01      	cmp	r3, #1
 8002f60:	d10e      	bne.n	8002f80 <HAL_RCC_OscConfig+0x33c>
 8002f62:	4b03      	ldr	r3, [pc, #12]	; (8002f70 <HAL_RCC_OscConfig+0x32c>)
 8002f64:	6a1a      	ldr	r2, [r3, #32]
 8002f66:	4b02      	ldr	r3, [pc, #8]	; (8002f70 <HAL_RCC_OscConfig+0x32c>)
 8002f68:	2101      	movs	r1, #1
 8002f6a:	430a      	orrs	r2, r1
 8002f6c:	621a      	str	r2, [r3, #32]
 8002f6e:	e035      	b.n	8002fdc <HAL_RCC_OscConfig+0x398>
 8002f70:	40021000 	.word	0x40021000
 8002f74:	fffeffff 	.word	0xfffeffff
 8002f78:	fffbffff 	.word	0xfffbffff
 8002f7c:	40007000 	.word	0x40007000
 8002f80:	687b      	ldr	r3, [r7, #4]
 8002f82:	689b      	ldr	r3, [r3, #8]
 8002f84:	2b00      	cmp	r3, #0
 8002f86:	d10c      	bne.n	8002fa2 <HAL_RCC_OscConfig+0x35e>
 8002f88:	4bb6      	ldr	r3, [pc, #728]	; (8003264 <HAL_RCC_OscConfig+0x620>)
 8002f8a:	6a1a      	ldr	r2, [r3, #32]
 8002f8c:	4bb5      	ldr	r3, [pc, #724]	; (8003264 <HAL_RCC_OscConfig+0x620>)
 8002f8e:	2101      	movs	r1, #1
 8002f90:	438a      	bics	r2, r1
 8002f92:	621a      	str	r2, [r3, #32]
 8002f94:	4bb3      	ldr	r3, [pc, #716]	; (8003264 <HAL_RCC_OscConfig+0x620>)
 8002f96:	6a1a      	ldr	r2, [r3, #32]
 8002f98:	4bb2      	ldr	r3, [pc, #712]	; (8003264 <HAL_RCC_OscConfig+0x620>)
 8002f9a:	2104      	movs	r1, #4
 8002f9c:	438a      	bics	r2, r1
 8002f9e:	621a      	str	r2, [r3, #32]
 8002fa0:	e01c      	b.n	8002fdc <HAL_RCC_OscConfig+0x398>
 8002fa2:	687b      	ldr	r3, [r7, #4]
 8002fa4:	689b      	ldr	r3, [r3, #8]
 8002fa6:	2b05      	cmp	r3, #5
 8002fa8:	d10c      	bne.n	8002fc4 <HAL_RCC_OscConfig+0x380>
 8002faa:	4bae      	ldr	r3, [pc, #696]	; (8003264 <HAL_RCC_OscConfig+0x620>)
 8002fac:	6a1a      	ldr	r2, [r3, #32]
 8002fae:	4bad      	ldr	r3, [pc, #692]	; (8003264 <HAL_RCC_OscConfig+0x620>)
 8002fb0:	2104      	movs	r1, #4
 8002fb2:	430a      	orrs	r2, r1
 8002fb4:	621a      	str	r2, [r3, #32]
 8002fb6:	4bab      	ldr	r3, [pc, #684]	; (8003264 <HAL_RCC_OscConfig+0x620>)
 8002fb8:	6a1a      	ldr	r2, [r3, #32]
 8002fba:	4baa      	ldr	r3, [pc, #680]	; (8003264 <HAL_RCC_OscConfig+0x620>)
 8002fbc:	2101      	movs	r1, #1
 8002fbe:	430a      	orrs	r2, r1
 8002fc0:	621a      	str	r2, [r3, #32]
 8002fc2:	e00b      	b.n	8002fdc <HAL_RCC_OscConfig+0x398>
 8002fc4:	4ba7      	ldr	r3, [pc, #668]	; (8003264 <HAL_RCC_OscConfig+0x620>)
 8002fc6:	6a1a      	ldr	r2, [r3, #32]
 8002fc8:	4ba6      	ldr	r3, [pc, #664]	; (8003264 <HAL_RCC_OscConfig+0x620>)
 8002fca:	2101      	movs	r1, #1
 8002fcc:	438a      	bics	r2, r1
 8002fce:	621a      	str	r2, [r3, #32]
 8002fd0:	4ba4      	ldr	r3, [pc, #656]	; (8003264 <HAL_RCC_OscConfig+0x620>)
 8002fd2:	6a1a      	ldr	r2, [r3, #32]
 8002fd4:	4ba3      	ldr	r3, [pc, #652]	; (8003264 <HAL_RCC_OscConfig+0x620>)
 8002fd6:	2104      	movs	r1, #4
 8002fd8:	438a      	bics	r2, r1
 8002fda:	621a      	str	r2, [r3, #32]
 8002fdc:	687b      	ldr	r3, [r7, #4]
 8002fde:	689b      	ldr	r3, [r3, #8]
 8002fe0:	2b00      	cmp	r3, #0
 8002fe2:	d014      	beq.n	800300e <HAL_RCC_OscConfig+0x3ca>
 8002fe4:	f7fd ff4c 	bl	8000e80 <HAL_GetTick>
 8002fe8:	0003      	movs	r3, r0
 8002fea:	61bb      	str	r3, [r7, #24]
 8002fec:	e009      	b.n	8003002 <HAL_RCC_OscConfig+0x3be>
 8002fee:	f7fd ff47 	bl	8000e80 <HAL_GetTick>
 8002ff2:	0002      	movs	r2, r0
 8002ff4:	69bb      	ldr	r3, [r7, #24]
 8002ff6:	1ad3      	subs	r3, r2, r3
 8002ff8:	4a9b      	ldr	r2, [pc, #620]	; (8003268 <HAL_RCC_OscConfig+0x624>)
 8002ffa:	4293      	cmp	r3, r2
 8002ffc:	d901      	bls.n	8003002 <HAL_RCC_OscConfig+0x3be>
 8002ffe:	2303      	movs	r3, #3
 8003000:	e12b      	b.n	800325a <HAL_RCC_OscConfig+0x616>
 8003002:	4b98      	ldr	r3, [pc, #608]	; (8003264 <HAL_RCC_OscConfig+0x620>)
 8003004:	6a1b      	ldr	r3, [r3, #32]
 8003006:	2202      	movs	r2, #2
 8003008:	4013      	ands	r3, r2
 800300a:	d0f0      	beq.n	8002fee <HAL_RCC_OscConfig+0x3aa>
 800300c:	e013      	b.n	8003036 <HAL_RCC_OscConfig+0x3f2>
 800300e:	f7fd ff37 	bl	8000e80 <HAL_GetTick>
 8003012:	0003      	movs	r3, r0
 8003014:	61bb      	str	r3, [r7, #24]
 8003016:	e009      	b.n	800302c <HAL_RCC_OscConfig+0x3e8>
 8003018:	f7fd ff32 	bl	8000e80 <HAL_GetTick>
 800301c:	0002      	movs	r2, r0
 800301e:	69bb      	ldr	r3, [r7, #24]
 8003020:	1ad3      	subs	r3, r2, r3
 8003022:	4a91      	ldr	r2, [pc, #580]	; (8003268 <HAL_RCC_OscConfig+0x624>)
 8003024:	4293      	cmp	r3, r2
 8003026:	d901      	bls.n	800302c <HAL_RCC_OscConfig+0x3e8>
 8003028:	2303      	movs	r3, #3
 800302a:	e116      	b.n	800325a <HAL_RCC_OscConfig+0x616>
 800302c:	4b8d      	ldr	r3, [pc, #564]	; (8003264 <HAL_RCC_OscConfig+0x620>)
 800302e:	6a1b      	ldr	r3, [r3, #32]
 8003030:	2202      	movs	r2, #2
 8003032:	4013      	ands	r3, r2
 8003034:	d1f0      	bne.n	8003018 <HAL_RCC_OscConfig+0x3d4>
 8003036:	231f      	movs	r3, #31
 8003038:	18fb      	adds	r3, r7, r3
 800303a:	781b      	ldrb	r3, [r3, #0]
 800303c:	2b01      	cmp	r3, #1
 800303e:	d105      	bne.n	800304c <HAL_RCC_OscConfig+0x408>
 8003040:	4b88      	ldr	r3, [pc, #544]	; (8003264 <HAL_RCC_OscConfig+0x620>)
 8003042:	69da      	ldr	r2, [r3, #28]
 8003044:	4b87      	ldr	r3, [pc, #540]	; (8003264 <HAL_RCC_OscConfig+0x620>)
 8003046:	4989      	ldr	r1, [pc, #548]	; (800326c <HAL_RCC_OscConfig+0x628>)
 8003048:	400a      	ands	r2, r1
 800304a:	61da      	str	r2, [r3, #28]
 800304c:	687b      	ldr	r3, [r7, #4]
 800304e:	681b      	ldr	r3, [r3, #0]
 8003050:	2210      	movs	r2, #16
 8003052:	4013      	ands	r3, r2
 8003054:	d063      	beq.n	800311e <HAL_RCC_OscConfig+0x4da>
 8003056:	687b      	ldr	r3, [r7, #4]
 8003058:	695b      	ldr	r3, [r3, #20]
 800305a:	2b01      	cmp	r3, #1
 800305c:	d12a      	bne.n	80030b4 <HAL_RCC_OscConfig+0x470>
 800305e:	4b81      	ldr	r3, [pc, #516]	; (8003264 <HAL_RCC_OscConfig+0x620>)
 8003060:	6b5a      	ldr	r2, [r3, #52]	; 0x34
 8003062:	4b80      	ldr	r3, [pc, #512]	; (8003264 <HAL_RCC_OscConfig+0x620>)
 8003064:	2104      	movs	r1, #4
 8003066:	430a      	orrs	r2, r1
 8003068:	635a      	str	r2, [r3, #52]	; 0x34
 800306a:	4b7e      	ldr	r3, [pc, #504]	; (8003264 <HAL_RCC_OscConfig+0x620>)
 800306c:	6b5a      	ldr	r2, [r3, #52]	; 0x34
 800306e:	4b7d      	ldr	r3, [pc, #500]	; (8003264 <HAL_RCC_OscConfig+0x620>)
 8003070:	2101      	movs	r1, #1
 8003072:	430a      	orrs	r2, r1
 8003074:	635a      	str	r2, [r3, #52]	; 0x34
 8003076:	f7fd ff03 	bl	8000e80 <HAL_GetTick>
 800307a:	0003      	movs	r3, r0
 800307c:	61bb      	str	r3, [r7, #24]
 800307e:	e008      	b.n	8003092 <HAL_RCC_OscConfig+0x44e>
 8003080:	f7fd fefe 	bl	8000e80 <HAL_GetTick>
 8003084:	0002      	movs	r2, r0
 8003086:	69bb      	ldr	r3, [r7, #24]
 8003088:	1ad3      	subs	r3, r2, r3
 800308a:	2b02      	cmp	r3, #2
 800308c:	d901      	bls.n	8003092 <HAL_RCC_OscConfig+0x44e>
 800308e:	2303      	movs	r3, #3
 8003090:	e0e3      	b.n	800325a <HAL_RCC_OscConfig+0x616>
 8003092:	4b74      	ldr	r3, [pc, #464]	; (8003264 <HAL_RCC_OscConfig+0x620>)
 8003094:	6b5b      	ldr	r3, [r3, #52]	; 0x34
 8003096:	2202      	movs	r2, #2
 8003098:	4013      	ands	r3, r2
 800309a:	d0f1      	beq.n	8003080 <HAL_RCC_OscConfig+0x43c>
 800309c:	4b71      	ldr	r3, [pc, #452]	; (8003264 <HAL_RCC_OscConfig+0x620>)
 800309e:	6b5b      	ldr	r3, [r3, #52]	; 0x34
 80030a0:	22f8      	movs	r2, #248	; 0xf8
 80030a2:	4393      	bics	r3, r2
 80030a4:	0019      	movs	r1, r3
 80030a6:	687b      	ldr	r3, [r7, #4]
 80030a8:	699b      	ldr	r3, [r3, #24]
 80030aa:	00da      	lsls	r2, r3, #3
 80030ac:	4b6d      	ldr	r3, [pc, #436]	; (8003264 <HAL_RCC_OscConfig+0x620>)
 80030ae:	430a      	orrs	r2, r1
 80030b0:	635a      	str	r2, [r3, #52]	; 0x34
 80030b2:	e034      	b.n	800311e <HAL_RCC_OscConfig+0x4da>
 80030b4:	687b      	ldr	r3, [r7, #4]
 80030b6:	695b      	ldr	r3, [r3, #20]
 80030b8:	3305      	adds	r3, #5
 80030ba:	d111      	bne.n	80030e0 <HAL_RCC_OscConfig+0x49c>
 80030bc:	4b69      	ldr	r3, [pc, #420]	; (8003264 <HAL_RCC_OscConfig+0x620>)
 80030be:	6b5a      	ldr	r2, [r3, #52]	; 0x34
 80030c0:	4b68      	ldr	r3, [pc, #416]	; (8003264 <HAL_RCC_OscConfig+0x620>)
 80030c2:	2104      	movs	r1, #4
 80030c4:	438a      	bics	r2, r1
 80030c6:	635a      	str	r2, [r3, #52]	; 0x34
 80030c8:	4b66      	ldr	r3, [pc, #408]	; (8003264 <HAL_RCC_OscConfig+0x620>)
 80030ca:	6b5b      	ldr	r3, [r3, #52]	; 0x34
 80030cc:	22f8      	movs	r2, #248	; 0xf8
 80030ce:	4393      	bics	r3, r2
 80030d0:	0019      	movs	r1, r3
 80030d2:	687b      	ldr	r3, [r7, #4]
 80030d4:	699b      	ldr	r3, [r3, #24]
 80030d6:	00da      	lsls	r2, r3, #3
 80030d8:	4b62      	ldr	r3, [pc, #392]	; (8003264 <HAL_RCC_OscConfig+0x620>)
 80030da:	430a      	orrs	r2, r1
 80030dc:	635a      	str	r2, [r3, #52]	; 0x34
 80030de:	e01e      	b.n	800311e <HAL_RCC_OscConfig+0x4da>
 80030e0:	4b60      	ldr	r3, [pc, #384]	; (8003264 <HAL_RCC_OscConfig+0x620>)
 80030e2:	6b5a      	ldr	r2, [r3, #52]	; 0x34
 80030e4:	4b5f      	ldr	r3, [pc, #380]	; (8003264 <HAL_RCC_OscConfig+0x620>)
 80030e6:	2104      	movs	r1, #4
 80030e8:	430a      	orrs	r2, r1
 80030ea:	635a      	str	r2, [r3, #52]	; 0x34
 80030ec:	4b5d      	ldr	r3, [pc, #372]	; (8003264 <HAL_RCC_OscConfig+0x620>)
 80030ee:	6b5a      	ldr	r2, [r3, #52]	; 0x34
 80030f0:	4b5c      	ldr	r3, [pc, #368]	; (8003264 <HAL_RCC_OscConfig+0x620>)
 80030f2:	2101      	movs	r1, #1
 80030f4:	438a      	bics	r2, r1
 80030f6:	635a      	str	r2, [r3, #52]	; 0x34
 80030f8:	f7fd fec2 	bl	8000e80 <HAL_GetTick>
 80030fc:	0003      	movs	r3, r0
 80030fe:	61bb      	str	r3, [r7, #24]
 8003100:	e008      	b.n	8003114 <HAL_RCC_OscConfig+0x4d0>
 8003102:	f7fd febd 	bl	8000e80 <HAL_GetTick>
 8003106:	0002      	movs	r2, r0
 8003108:	69bb      	ldr	r3, [r7, #24]
 800310a:	1ad3      	subs	r3, r2, r3
 800310c:	2b02      	cmp	r3, #2
 800310e:	d901      	bls.n	8003114 <HAL_RCC_OscConfig+0x4d0>
 8003110:	2303      	movs	r3, #3
 8003112:	e0a2      	b.n	800325a <HAL_RCC_OscConfig+0x616>
 8003114:	4b53      	ldr	r3, [pc, #332]	; (8003264 <HAL_RCC_OscConfig+0x620>)
 8003116:	6b5b      	ldr	r3, [r3, #52]	; 0x34
 8003118:	2202      	movs	r2, #2
 800311a:	4013      	ands	r3, r2
 800311c:	d1f1      	bne.n	8003102 <HAL_RCC_OscConfig+0x4be>
 800311e:	687b      	ldr	r3, [r7, #4]
 8003120:	6a1b      	ldr	r3, [r3, #32]
 8003122:	2b00      	cmp	r3, #0
 8003124:	d100      	bne.n	8003128 <HAL_RCC_OscConfig+0x4e4>
 8003126:	e097      	b.n	8003258 <HAL_RCC_OscConfig+0x614>
 8003128:	4b4e      	ldr	r3, [pc, #312]	; (8003264 <HAL_RCC_OscConfig+0x620>)
 800312a:	685b      	ldr	r3, [r3, #4]
 800312c:	220c      	movs	r2, #12
 800312e:	4013      	ands	r3, r2
 8003130:	2b08      	cmp	r3, #8
 8003132:	d100      	bne.n	8003136 <HAL_RCC_OscConfig+0x4f2>
 8003134:	e06b      	b.n	800320e <HAL_RCC_OscConfig+0x5ca>
 8003136:	687b      	ldr	r3, [r7, #4]
 8003138:	6a1b      	ldr	r3, [r3, #32]
 800313a:	2b02      	cmp	r3, #2
 800313c:	d14c      	bne.n	80031d8 <HAL_RCC_OscConfig+0x594>
 800313e:	4b49      	ldr	r3, [pc, #292]	; (8003264 <HAL_RCC_OscConfig+0x620>)
 8003140:	681a      	ldr	r2, [r3, #0]
 8003142:	4b48      	ldr	r3, [pc, #288]	; (8003264 <HAL_RCC_OscConfig+0x620>)
 8003144:	494a      	ldr	r1, [pc, #296]	; (8003270 <HAL_RCC_OscConfig+0x62c>)
 8003146:	400a      	ands	r2, r1
 8003148:	601a      	str	r2, [r3, #0]
 800314a:	f7fd fe99 	bl	8000e80 <HAL_GetTick>
 800314e:	0003      	movs	r3, r0
 8003150:	61bb      	str	r3, [r7, #24]
 8003152:	e008      	b.n	8003166 <HAL_RCC_OscConfig+0x522>
 8003154:	f7fd fe94 	bl	8000e80 <HAL_GetTick>
 8003158:	0002      	movs	r2, r0
 800315a:	69bb      	ldr	r3, [r7, #24]
 800315c:	1ad3      	subs	r3, r2, r3
 800315e:	2b02      	cmp	r3, #2
 8003160:	d901      	bls.n	8003166 <HAL_RCC_OscConfig+0x522>
 8003162:	2303      	movs	r3, #3
 8003164:	e079      	b.n	800325a <HAL_RCC_OscConfig+0x616>
 8003166:	4b3f      	ldr	r3, [pc, #252]	; (8003264 <HAL_RCC_OscConfig+0x620>)
 8003168:	681a      	ldr	r2, [r3, #0]
 800316a:	2380      	movs	r3, #128	; 0x80
 800316c:	049b      	lsls	r3, r3, #18
 800316e:	4013      	ands	r3, r2
 8003170:	d1f0      	bne.n	8003154 <HAL_RCC_OscConfig+0x510>
 8003172:	4b3c      	ldr	r3, [pc, #240]	; (8003264 <HAL_RCC_OscConfig+0x620>)
 8003174:	6adb      	ldr	r3, [r3, #44]	; 0x2c
 8003176:	220f      	movs	r2, #15
 8003178:	4393      	bics	r3, r2
 800317a:	0019      	movs	r1, r3
 800317c:	687b      	ldr	r3, [r7, #4]
 800317e:	6ada      	ldr	r2, [r3, #44]	; 0x2c
 8003180:	4b38      	ldr	r3, [pc, #224]	; (8003264 <HAL_RCC_OscConfig+0x620>)
 8003182:	430a      	orrs	r2, r1
 8003184:	62da      	str	r2, [r3, #44]	; 0x2c
 8003186:	4b37      	ldr	r3, [pc, #220]	; (8003264 <HAL_RCC_OscConfig+0x620>)
 8003188:	685b      	ldr	r3, [r3, #4]
 800318a:	4a3a      	ldr	r2, [pc, #232]	; (8003274 <HAL_RCC_OscConfig+0x630>)
 800318c:	4013      	ands	r3, r2
 800318e:	0019      	movs	r1, r3
 8003190:	687b      	ldr	r3, [r7, #4]
 8003192:	6a9a      	ldr	r2, [r3, #40]	; 0x28
 8003194:	687b      	ldr	r3, [r7, #4]
 8003196:	6a5b      	ldr	r3, [r3, #36]	; 0x24
 8003198:	431a      	orrs	r2, r3
 800319a:	4b32      	ldr	r3, [pc, #200]	; (8003264 <HAL_RCC_OscConfig+0x620>)
 800319c:	430a      	orrs	r2, r1
 800319e:	605a      	str	r2, [r3, #4]
 80031a0:	4b30      	ldr	r3, [pc, #192]	; (8003264 <HAL_RCC_OscConfig+0x620>)
 80031a2:	681a      	ldr	r2, [r3, #0]
 80031a4:	4b2f      	ldr	r3, [pc, #188]	; (8003264 <HAL_RCC_OscConfig+0x620>)
 80031a6:	2180      	movs	r1, #128	; 0x80
 80031a8:	0449      	lsls	r1, r1, #17
 80031aa:	430a      	orrs	r2, r1
 80031ac:	601a      	str	r2, [r3, #0]
 80031ae:	f7fd fe67 	bl	8000e80 <HAL_GetTick>
 80031b2:	0003      	movs	r3, r0
 80031b4:	61bb      	str	r3, [r7, #24]
 80031b6:	e008      	b.n	80031ca <HAL_RCC_OscConfig+0x586>
 80031b8:	f7fd fe62 	bl	8000e80 <HAL_GetTick>
 80031bc:	0002      	movs	r2, r0
 80031be:	69bb      	ldr	r3, [r7, #24]
 80031c0:	1ad3      	subs	r3, r2, r3
 80031c2:	2b02      	cmp	r3, #2
 80031c4:	d901      	bls.n	80031ca <HAL_RCC_OscConfig+0x586>
 80031c6:	2303      	movs	r3, #3
 80031c8:	e047      	b.n	800325a <HAL_RCC_OscConfig+0x616>
 80031ca:	4b26      	ldr	r3, [pc, #152]	; (8003264 <HAL_RCC_OscConfig+0x620>)
 80031cc:	681a      	ldr	r2, [r3, #0]
 80031ce:	2380      	movs	r3, #128	; 0x80
 80031d0:	049b      	lsls	r3, r3, #18
 80031d2:	4013      	ands	r3, r2
 80031d4:	d0f0      	beq.n	80031b8 <HAL_RCC_OscConfig+0x574>
 80031d6:	e03f      	b.n	8003258 <HAL_RCC_OscConfig+0x614>
 80031d8:	4b22      	ldr	r3, [pc, #136]	; (8003264 <HAL_RCC_OscConfig+0x620>)
 80031da:	681a      	ldr	r2, [r3, #0]
 80031dc:	4b21      	ldr	r3, [pc, #132]	; (8003264 <HAL_RCC_OscConfig+0x620>)
 80031de:	4924      	ldr	r1, [pc, #144]	; (8003270 <HAL_RCC_OscConfig+0x62c>)
 80031e0:	400a      	ands	r2, r1
 80031e2:	601a      	str	r2, [r3, #0]
 80031e4:	f7fd fe4c 	bl	8000e80 <HAL_GetTick>
 80031e8:	0003      	movs	r3, r0
 80031ea:	61bb      	str	r3, [r7, #24]
 80031ec:	e008      	b.n	8003200 <HAL_RCC_OscConfig+0x5bc>
 80031ee:	f7fd fe47 	bl	8000e80 <HAL_GetTick>
 80031f2:	0002      	movs	r2, r0
 80031f4:	69bb      	ldr	r3, [r7, #24]
 80031f6:	1ad3      	subs	r3, r2, r3
 80031f8:	2b02      	cmp	r3, #2
 80031fa:	d901      	bls.n	8003200 <HAL_RCC_OscConfig+0x5bc>
 80031fc:	2303      	movs	r3, #3
 80031fe:	e02c      	b.n	800325a <HAL_RCC_OscConfig+0x616>
 8003200:	4b18      	ldr	r3, [pc, #96]	; (8003264 <HAL_RCC_OscConfig+0x620>)
 8003202:	681a      	ldr	r2, [r3, #0]
 8003204:	2380      	movs	r3, #128	; 0x80
 8003206:	049b      	lsls	r3, r3, #18
 8003208:	4013      	ands	r3, r2
 800320a:	d1f0      	bne.n	80031ee <HAL_RCC_OscConfig+0x5aa>
 800320c:	e024      	b.n	8003258 <HAL_RCC_OscConfig+0x614>
 800320e:	687b      	ldr	r3, [r7, #4]
 8003210:	6a1b      	ldr	r3, [r3, #32]
 8003212:	2b01      	cmp	r3, #1
 8003214:	d101      	bne.n	800321a <HAL_RCC_OscConfig+0x5d6>
 8003216:	2301      	movs	r3, #1
 8003218:	e01f      	b.n	800325a <HAL_RCC_OscConfig+0x616>
 800321a:	4b12      	ldr	r3, [pc, #72]	; (8003264 <HAL_RCC_OscConfig+0x620>)
 800321c:	685b      	ldr	r3, [r3, #4]
 800321e:	617b      	str	r3, [r7, #20]
 8003220:	4b10      	ldr	r3, [pc, #64]	; (8003264 <HAL_RCC_OscConfig+0x620>)
 8003222:	6adb      	ldr	r3, [r3, #44]	; 0x2c
 8003224:	613b      	str	r3, [r7, #16]
 8003226:	697a      	ldr	r2, [r7, #20]
 8003228:	2380      	movs	r3, #128	; 0x80
 800322a:	025b      	lsls	r3, r3, #9
 800322c:	401a      	ands	r2, r3
 800322e:	687b      	ldr	r3, [r7, #4]
 8003230:	6a5b      	ldr	r3, [r3, #36]	; 0x24
 8003232:	429a      	cmp	r2, r3
 8003234:	d10e      	bne.n	8003254 <HAL_RCC_OscConfig+0x610>
 8003236:	693b      	ldr	r3, [r7, #16]
 8003238:	220f      	movs	r2, #15
 800323a:	401a      	ands	r2, r3
 800323c:	687b      	ldr	r3, [r7, #4]
 800323e:	6adb      	ldr	r3, [r3, #44]	; 0x2c
 8003240:	429a      	cmp	r2, r3
 8003242:	d107      	bne.n	8003254 <HAL_RCC_OscConfig+0x610>
 8003244:	697a      	ldr	r2, [r7, #20]
 8003246:	23f0      	movs	r3, #240	; 0xf0
 8003248:	039b      	lsls	r3, r3, #14
 800324a:	401a      	ands	r2, r3
 800324c:	687b      	ldr	r3, [r7, #4]
 800324e:	6a9b      	ldr	r3, [r3, #40]	; 0x28
 8003250:	429a      	cmp	r2, r3
 8003252:	d001      	beq.n	8003258 <HAL_RCC_OscConfig+0x614>
 8003254:	2301      	movs	r3, #1
 8003256:	e000      	b.n	800325a <HAL_RCC_OscConfig+0x616>
 8003258:	2300      	movs	r3, #0
 800325a:	0018      	movs	r0, r3
 800325c:	46bd      	mov	sp, r7
 800325e:	b008      	add	sp, #32
 8003260:	bd80      	pop	{r7, pc}
 8003262:	46c0      	nop			; (mov r8, r8)
 8003264:	40021000 	.word	0x40021000
 8003268:	00001388 	.word	0x00001388
 800326c:	efffffff 	.word	0xefffffff
 8003270:	feffffff 	.word	0xfeffffff
 8003274:	ffc2ffff 	.word	0xffc2ffff

08003278 <HAL_RCC_ClockConfig>:
 8003278:	b580      	push	{r7, lr}
 800327a:	b084      	sub	sp, #16
 800327c:	af00      	add	r7, sp, #0
 800327e:	6078      	str	r0, [r7, #4]
 8003280:	6039      	str	r1, [r7, #0]
 8003282:	687b      	ldr	r3, [r7, #4]
 8003284:	2b00      	cmp	r3, #0
 8003286:	d101      	bne.n	800328c <HAL_RCC_ClockConfig+0x14>
 8003288:	2301      	movs	r3, #1
 800328a:	e0b3      	b.n	80033f4 <HAL_RCC_ClockConfig+0x17c>
 800328c:	4b5b      	ldr	r3, [pc, #364]	; (80033fc <HAL_RCC_ClockConfig+0x184>)
 800328e:	681b      	ldr	r3, [r3, #0]
 8003290:	2201      	movs	r2, #1
 8003292:	4013      	ands	r3, r2
 8003294:	683a      	ldr	r2, [r7, #0]
 8003296:	429a      	cmp	r2, r3
 8003298:	d911      	bls.n	80032be <HAL_RCC_ClockConfig+0x46>
 800329a:	4b58      	ldr	r3, [pc, #352]	; (80033fc <HAL_RCC_ClockConfig+0x184>)
 800329c:	681b      	ldr	r3, [r3, #0]
 800329e:	2201      	movs	r2, #1
 80032a0:	4393      	bics	r3, r2
 80032a2:	0019      	movs	r1, r3
 80032a4:	4b55      	ldr	r3, [pc, #340]	; (80033fc <HAL_RCC_ClockConfig+0x184>)
 80032a6:	683a      	ldr	r2, [r7, #0]
 80032a8:	430a      	orrs	r2, r1
 80032aa:	601a      	str	r2, [r3, #0]
 80032ac:	4b53      	ldr	r3, [pc, #332]	; (80033fc <HAL_RCC_ClockConfig+0x184>)
 80032ae:	681b      	ldr	r3, [r3, #0]
 80032b0:	2201      	movs	r2, #1
 80032b2:	4013      	ands	r3, r2
 80032b4:	683a      	ldr	r2, [r7, #0]
 80032b6:	429a      	cmp	r2, r3
 80032b8:	d001      	beq.n	80032be <HAL_RCC_ClockConfig+0x46>
 80032ba:	2301      	movs	r3, #1
 80032bc:	e09a      	b.n	80033f4 <HAL_RCC_ClockConfig+0x17c>
 80032be:	687b      	ldr	r3, [r7, #4]
 80032c0:	681b      	ldr	r3, [r3, #0]
 80032c2:	2202      	movs	r2, #2
 80032c4:	4013      	ands	r3, r2
 80032c6:	d015      	beq.n	80032f4 <HAL_RCC_ClockConfig+0x7c>
 80032c8:	687b      	ldr	r3, [r7, #4]
 80032ca:	681b      	ldr	r3, [r3, #0]
 80032cc:	2204      	movs	r2, #4
 80032ce:	4013      	ands	r3, r2
 80032d0:	d006      	beq.n	80032e0 <HAL_RCC_ClockConfig+0x68>
 80032d2:	4b4b      	ldr	r3, [pc, #300]	; (8003400 <HAL_RCC_ClockConfig+0x188>)
 80032d4:	685a      	ldr	r2, [r3, #4]
 80032d6:	4b4a      	ldr	r3, [pc, #296]	; (8003400 <HAL_RCC_ClockConfig+0x188>)
 80032d8:	21e0      	movs	r1, #224	; 0xe0
 80032da:	00c9      	lsls	r1, r1, #3
 80032dc:	430a      	orrs	r2, r1
 80032de:	605a      	str	r2, [r3, #4]
 80032e0:	4b47      	ldr	r3, [pc, #284]	; (8003400 <HAL_RCC_ClockConfig+0x188>)
 80032e2:	685b      	ldr	r3, [r3, #4]
 80032e4:	22f0      	movs	r2, #240	; 0xf0
 80032e6:	4393      	bics	r3, r2
 80032e8:	0019      	movs	r1, r3
 80032ea:	687b      	ldr	r3, [r7, #4]
 80032ec:	689a      	ldr	r2, [r3, #8]
 80032ee:	4b44      	ldr	r3, [pc, #272]	; (8003400 <HAL_RCC_ClockConfig+0x188>)
 80032f0:	430a      	orrs	r2, r1
 80032f2:	605a      	str	r2, [r3, #4]
 80032f4:	687b      	ldr	r3, [r7, #4]
 80032f6:	681b      	ldr	r3, [r3, #0]
 80032f8:	2201      	movs	r2, #1
 80032fa:	4013      	ands	r3, r2
 80032fc:	d040      	beq.n	8003380 <HAL_RCC_ClockConfig+0x108>
 80032fe:	687b      	ldr	r3, [r7, #4]
 8003300:	685b      	ldr	r3, [r3, #4]
 8003302:	2b01      	cmp	r3, #1
 8003304:	d107      	bne.n	8003316 <HAL_RCC_ClockConfig+0x9e>
 8003306:	4b3e      	ldr	r3, [pc, #248]	; (8003400 <HAL_RCC_ClockConfig+0x188>)
 8003308:	681a      	ldr	r2, [r3, #0]
 800330a:	2380      	movs	r3, #128	; 0x80
 800330c:	029b      	lsls	r3, r3, #10
 800330e:	4013      	ands	r3, r2
 8003310:	d114      	bne.n	800333c <HAL_RCC_ClockConfig+0xc4>
 8003312:	2301      	movs	r3, #1
 8003314:	e06e      	b.n	80033f4 <HAL_RCC_ClockConfig+0x17c>
 8003316:	687b      	ldr	r3, [r7, #4]
 8003318:	685b      	ldr	r3, [r3, #4]
 800331a:	2b02      	cmp	r3, #2
 800331c:	d107      	bne.n	800332e <HAL_RCC_ClockConfig+0xb6>
 800331e:	4b38      	ldr	r3, [pc, #224]	; (8003400 <HAL_RCC_ClockConfig+0x188>)
 8003320:	681a      	ldr	r2, [r3, #0]
 8003322:	2380      	movs	r3, #128	; 0x80
 8003324:	049b      	lsls	r3, r3, #18
 8003326:	4013      	ands	r3, r2
 8003328:	d108      	bne.n	800333c <HAL_RCC_ClockConfig+0xc4>
 800332a:	2301      	movs	r3, #1
 800332c:	e062      	b.n	80033f4 <HAL_RCC_ClockConfig+0x17c>
 800332e:	4b34      	ldr	r3, [pc, #208]	; (8003400 <HAL_RCC_ClockConfig+0x188>)
 8003330:	681b      	ldr	r3, [r3, #0]
 8003332:	2202      	movs	r2, #2
 8003334:	4013      	ands	r3, r2
 8003336:	d101      	bne.n	800333c <HAL_RCC_ClockConfig+0xc4>
 8003338:	2301      	movs	r3, #1
 800333a:	e05b      	b.n	80033f4 <HAL_RCC_ClockConfig+0x17c>
 800333c:	4b30      	ldr	r3, [pc, #192]	; (8003400 <HAL_RCC_ClockConfig+0x188>)
 800333e:	685b      	ldr	r3, [r3, #4]
 8003340:	2203      	movs	r2, #3
 8003342:	4393      	bics	r3, r2
 8003344:	0019      	movs	r1, r3
 8003346:	687b      	ldr	r3, [r7, #4]
 8003348:	685a      	ldr	r2, [r3, #4]
 800334a:	4b2d      	ldr	r3, [pc, #180]	; (8003400 <HAL_RCC_ClockConfig+0x188>)
 800334c:	430a      	orrs	r2, r1
 800334e:	605a      	str	r2, [r3, #4]
 8003350:	f7fd fd96 	bl	8000e80 <HAL_GetTick>
 8003354:	0003      	movs	r3, r0
 8003356:	60fb      	str	r3, [r7, #12]
 8003358:	e009      	b.n	800336e <HAL_RCC_ClockConfig+0xf6>
 800335a:	f7fd fd91 	bl	8000e80 <HAL_GetTick>
 800335e:	0002      	movs	r2, r0
 8003360:	68fb      	ldr	r3, [r7, #12]
 8003362:	1ad3      	subs	r3, r2, r3
 8003364:	4a27      	ldr	r2, [pc, #156]	; (8003404 <HAL_RCC_ClockConfig+0x18c>)
 8003366:	4293      	cmp	r3, r2
 8003368:	d901      	bls.n	800336e <HAL_RCC_ClockConfig+0xf6>
 800336a:	2303      	movs	r3, #3
 800336c:	e042      	b.n	80033f4 <HAL_RCC_ClockConfig+0x17c>
 800336e:	4b24      	ldr	r3, [pc, #144]	; (8003400 <HAL_RCC_ClockConfig+0x188>)
 8003370:	685b      	ldr	r3, [r3, #4]
 8003372:	220c      	movs	r2, #12
 8003374:	401a      	ands	r2, r3
 8003376:	687b      	ldr	r3, [r7, #4]
 8003378:	685b      	ldr	r3, [r3, #4]
 800337a:	009b      	lsls	r3, r3, #2
 800337c:	429a      	cmp	r2, r3
 800337e:	d1ec      	bne.n	800335a <HAL_RCC_ClockConfig+0xe2>
 8003380:	4b1e      	ldr	r3, [pc, #120]	; (80033fc <HAL_RCC_ClockConfig+0x184>)
 8003382:	681b      	ldr	r3, [r3, #0]
 8003384:	2201      	movs	r2, #1
 8003386:	4013      	ands	r3, r2
 8003388:	683a      	ldr	r2, [r7, #0]
 800338a:	429a      	cmp	r2, r3
 800338c:	d211      	bcs.n	80033b2 <HAL_RCC_ClockConfig+0x13a>
 800338e:	4b1b      	ldr	r3, [pc, #108]	; (80033fc <HAL_RCC_ClockConfig+0x184>)
 8003390:	681b      	ldr	r3, [r3, #0]
 8003392:	2201      	movs	r2, #1
 8003394:	4393      	bics	r3, r2
 8003396:	0019      	movs	r1, r3
 8003398:	4b18      	ldr	r3, [pc, #96]	; (80033fc <HAL_RCC_ClockConfig+0x184>)
 800339a:	683a      	ldr	r2, [r7, #0]
 800339c:	430a      	orrs	r2, r1
 800339e:	601a      	str	r2, [r3, #0]
 80033a0:	4b16      	ldr	r3, [pc, #88]	; (80033fc <HAL_RCC_ClockConfig+0x184>)
 80033a2:	681b      	ldr	r3, [r3, #0]
 80033a4:	2201      	movs	r2, #1
 80033a6:	4013      	ands	r3, r2
 80033a8:	683a      	ldr	r2, [r7, #0]
 80033aa:	429a      	cmp	r2, r3
 80033ac:	d001      	beq.n	80033b2 <HAL_RCC_ClockConfig+0x13a>
 80033ae:	2301      	movs	r3, #1
 80033b0:	e020      	b.n	80033f4 <HAL_RCC_ClockConfig+0x17c>
 80033b2:	687b      	ldr	r3, [r7, #4]
 80033b4:	681b      	ldr	r3, [r3, #0]
 80033b6:	2204      	movs	r2, #4
 80033b8:	4013      	ands	r3, r2
 80033ba:	d009      	beq.n	80033d0 <HAL_RCC_ClockConfig+0x158>
 80033bc:	4b10      	ldr	r3, [pc, #64]	; (8003400 <HAL_RCC_ClockConfig+0x188>)
 80033be:	685b      	ldr	r3, [r3, #4]
 80033c0:	4a11      	ldr	r2, [pc, #68]	; (8003408 <HAL_RCC_ClockConfig+0x190>)
 80033c2:	4013      	ands	r3, r2
 80033c4:	0019      	movs	r1, r3
 80033c6:	687b      	ldr	r3, [r7, #4]
 80033c8:	68da      	ldr	r2, [r3, #12]
 80033ca:	4b0d      	ldr	r3, [pc, #52]	; (8003400 <HAL_RCC_ClockConfig+0x188>)
 80033cc:	430a      	orrs	r2, r1
 80033ce:	605a      	str	r2, [r3, #4]
 80033d0:	f000 f820 	bl	8003414 <HAL_RCC_GetSysClockFreq>
 80033d4:	0001      	movs	r1, r0
 80033d6:	4b0a      	ldr	r3, [pc, #40]	; (8003400 <HAL_RCC_ClockConfig+0x188>)
 80033d8:	685b      	ldr	r3, [r3, #4]
 80033da:	091b      	lsrs	r3, r3, #4
 80033dc:	220f      	movs	r2, #15
 80033de:	4013      	ands	r3, r2
 80033e0:	4a0a      	ldr	r2, [pc, #40]	; (800340c <HAL_RCC_ClockConfig+0x194>)
 80033e2:	5cd3      	ldrb	r3, [r2, r3]
 80033e4:	000a      	movs	r2, r1
 80033e6:	40da      	lsrs	r2, r3
 80033e8:	4b09      	ldr	r3, [pc, #36]	; (8003410 <HAL_RCC_ClockConfig+0x198>)
 80033ea:	601a      	str	r2, [r3, #0]
 80033ec:	2000      	movs	r0, #0
 80033ee:	f7fd fd01 	bl	8000df4 <HAL_InitTick>
 80033f2:	2300      	movs	r3, #0
 80033f4:	0018      	movs	r0, r3
 80033f6:	46bd      	mov	sp, r7
 80033f8:	b004      	add	sp, #16
 80033fa:	bd80      	pop	{r7, pc}
 80033fc:	40022000 	.word	0x40022000
 8003400:	40021000 	.word	0x40021000
 8003404:	00001388 	.word	0x00001388
 8003408:	fffff8ff 	.word	0xfffff8ff
 800340c:	08003f3c 	.word	0x08003f3c
 8003410:	20000010 	.word	0x20000010

08003414 <HAL_RCC_GetSysClockFreq>:
 8003414:	b590      	push	{r4, r7, lr}
 8003416:	b08f      	sub	sp, #60	; 0x3c
 8003418:	af00      	add	r7, sp, #0
 800341a:	2314      	movs	r3, #20
 800341c:	18fb      	adds	r3, r7, r3
 800341e:	4a2b      	ldr	r2, [pc, #172]	; (80034cc <HAL_RCC_GetSysClockFreq+0xb8>)
 8003420:	ca13      	ldmia	r2!, {r0, r1, r4}
 8003422:	c313      	stmia	r3!, {r0, r1, r4}
 8003424:	6812      	ldr	r2, [r2, #0]
 8003426:	601a      	str	r2, [r3, #0]
 8003428:	1d3b      	adds	r3, r7, #4
 800342a:	4a29      	ldr	r2, [pc, #164]	; (80034d0 <HAL_RCC_GetSysClockFreq+0xbc>)
 800342c:	ca13      	ldmia	r2!, {r0, r1, r4}
 800342e:	c313      	stmia	r3!, {r0, r1, r4}
 8003430:	6812      	ldr	r2, [r2, #0]
 8003432:	601a      	str	r2, [r3, #0]
 8003434:	2300      	movs	r3, #0
 8003436:	62fb      	str	r3, [r7, #44]	; 0x2c
 8003438:	2300      	movs	r3, #0
 800343a:	62bb      	str	r3, [r7, #40]	; 0x28
 800343c:	2300      	movs	r3, #0
 800343e:	637b      	str	r3, [r7, #52]	; 0x34
 8003440:	2300      	movs	r3, #0
 8003442:	627b      	str	r3, [r7, #36]	; 0x24
 8003444:	2300      	movs	r3, #0
 8003446:	633b      	str	r3, [r7, #48]	; 0x30
 8003448:	4b22      	ldr	r3, [pc, #136]	; (80034d4 <HAL_RCC_GetSysClockFreq+0xc0>)
 800344a:	685b      	ldr	r3, [r3, #4]
 800344c:	62fb      	str	r3, [r7, #44]	; 0x2c
 800344e:	6afb      	ldr	r3, [r7, #44]	; 0x2c
 8003450:	220c      	movs	r2, #12
 8003452:	4013      	ands	r3, r2
 8003454:	2b04      	cmp	r3, #4
 8003456:	d002      	beq.n	800345e <HAL_RCC_GetSysClockFreq+0x4a>
 8003458:	2b08      	cmp	r3, #8
 800345a:	d003      	beq.n	8003464 <HAL_RCC_GetSysClockFreq+0x50>
 800345c:	e02d      	b.n	80034ba <HAL_RCC_GetSysClockFreq+0xa6>
 800345e:	4b1e      	ldr	r3, [pc, #120]	; (80034d8 <HAL_RCC_GetSysClockFreq+0xc4>)
 8003460:	633b      	str	r3, [r7, #48]	; 0x30
 8003462:	e02d      	b.n	80034c0 <HAL_RCC_GetSysClockFreq+0xac>
 8003464:	6afb      	ldr	r3, [r7, #44]	; 0x2c
 8003466:	0c9b      	lsrs	r3, r3, #18
 8003468:	220f      	movs	r2, #15
 800346a:	4013      	ands	r3, r2
 800346c:	2214      	movs	r2, #20
 800346e:	18ba      	adds	r2, r7, r2
 8003470:	5cd3      	ldrb	r3, [r2, r3]
 8003472:	627b      	str	r3, [r7, #36]	; 0x24
 8003474:	4b17      	ldr	r3, [pc, #92]	; (80034d4 <HAL_RCC_GetSysClockFreq+0xc0>)
 8003476:	6adb      	ldr	r3, [r3, #44]	; 0x2c
 8003478:	220f      	movs	r2, #15
 800347a:	4013      	ands	r3, r2
 800347c:	1d3a      	adds	r2, r7, #4
 800347e:	5cd3      	ldrb	r3, [r2, r3]
 8003480:	62bb      	str	r3, [r7, #40]	; 0x28
 8003482:	6afa      	ldr	r2, [r7, #44]	; 0x2c
 8003484:	2380      	movs	r3, #128	; 0x80
 8003486:	025b      	lsls	r3, r3, #9
 8003488:	4013      	ands	r3, r2
 800348a:	d009      	beq.n	80034a0 <HAL_RCC_GetSysClockFreq+0x8c>
 800348c:	6ab9      	ldr	r1, [r7, #40]	; 0x28
 800348e:	4812      	ldr	r0, [pc, #72]	; (80034d8 <HAL_RCC_GetSysClockFreq+0xc4>)
 8003490:	f7fc fe3a 	bl	8000108 <__udivsi3>
 8003494:	0003      	movs	r3, r0
 8003496:	001a      	movs	r2, r3
 8003498:	6a7b      	ldr	r3, [r7, #36]	; 0x24
 800349a:	4353      	muls	r3, r2
 800349c:	637b      	str	r3, [r7, #52]	; 0x34
 800349e:	e009      	b.n	80034b4 <HAL_RCC_GetSysClockFreq+0xa0>
 80034a0:	6a79      	ldr	r1, [r7, #36]	; 0x24
 80034a2:	000a      	movs	r2, r1
 80034a4:	0152      	lsls	r2, r2, #5
 80034a6:	1a52      	subs	r2, r2, r1
 80034a8:	0193      	lsls	r3, r2, #6
 80034aa:	1a9b      	subs	r3, r3, r2
 80034ac:	00db      	lsls	r3, r3, #3
 80034ae:	185b      	adds	r3, r3, r1
 80034b0:	021b      	lsls	r3, r3, #8
 80034b2:	637b      	str	r3, [r7, #52]	; 0x34
 80034b4:	6b7b      	ldr	r3, [r7, #52]	; 0x34
 80034b6:	633b      	str	r3, [r7, #48]	; 0x30
 80034b8:	e002      	b.n	80034c0 <HAL_RCC_GetSysClockFreq+0xac>
 80034ba:	4b07      	ldr	r3, [pc, #28]	; (80034d8 <HAL_RCC_GetSysClockFreq+0xc4>)
 80034bc:	633b      	str	r3, [r7, #48]	; 0x30
 80034be:	46c0      	nop			; (mov r8, r8)
 80034c0:	6b3b      	ldr	r3, [r7, #48]	; 0x30
 80034c2:	0018      	movs	r0, r3
 80034c4:	46bd      	mov	sp, r7
 80034c6:	b00f      	add	sp, #60	; 0x3c
 80034c8:	bd90      	pop	{r4, r7, pc}
 80034ca:	46c0      	nop			; (mov r8, r8)
 80034cc:	08003edc 	.word	0x08003edc
 80034d0:	08003eec 	.word	0x08003eec
 80034d4:	40021000 	.word	0x40021000
 80034d8:	007a1200 	.word	0x007a1200

080034dc <HAL_RCCEx_PeriphCLKConfig>:
 80034dc:	b580      	push	{r7, lr}
 80034de:	b086      	sub	sp, #24
 80034e0:	af00      	add	r7, sp, #0
 80034e2:	6078      	str	r0, [r7, #4]
 80034e4:	2300      	movs	r3, #0
 80034e6:	613b      	str	r3, [r7, #16]
 80034e8:	2300      	movs	r3, #0
 80034ea:	60fb      	str	r3, [r7, #12]
 80034ec:	687b      	ldr	r3, [r7, #4]
 80034ee:	681a      	ldr	r2, [r3, #0]
 80034f0:	2380      	movs	r3, #128	; 0x80
 80034f2:	025b      	lsls	r3, r3, #9
 80034f4:	4013      	ands	r3, r2
 80034f6:	d100      	bne.n	80034fa <HAL_RCCEx_PeriphCLKConfig+0x1e>
 80034f8:	e08e      	b.n	8003618 <HAL_RCCEx_PeriphCLKConfig+0x13c>
 80034fa:	2017      	movs	r0, #23
 80034fc:	183b      	adds	r3, r7, r0
 80034fe:	2200      	movs	r2, #0
 8003500:	701a      	strb	r2, [r3, #0]
 8003502:	4b5f      	ldr	r3, [pc, #380]	; (8003680 <HAL_RCCEx_PeriphCLKConfig+0x1a4>)
 8003504:	69da      	ldr	r2, [r3, #28]
 8003506:	2380      	movs	r3, #128	; 0x80
 8003508:	055b      	lsls	r3, r3, #21
 800350a:	4013      	ands	r3, r2
 800350c:	d110      	bne.n	8003530 <HAL_RCCEx_PeriphCLKConfig+0x54>
 800350e:	4b5c      	ldr	r3, [pc, #368]	; (8003680 <HAL_RCCEx_PeriphCLKConfig+0x1a4>)
 8003510:	69da      	ldr	r2, [r3, #28]
 8003512:	4b5b      	ldr	r3, [pc, #364]	; (8003680 <HAL_RCCEx_PeriphCLKConfig+0x1a4>)
 8003514:	2180      	movs	r1, #128	; 0x80
 8003516:	0549      	lsls	r1, r1, #21
 8003518:	430a      	orrs	r2, r1
 800351a:	61da      	str	r2, [r3, #28]
 800351c:	4b58      	ldr	r3, [pc, #352]	; (8003680 <HAL_RCCEx_PeriphCLKConfig+0x1a4>)
 800351e:	69da      	ldr	r2, [r3, #28]
 8003520:	2380      	movs	r3, #128	; 0x80
 8003522:	055b      	lsls	r3, r3, #21
 8003524:	4013      	ands	r3, r2
 8003526:	60bb      	str	r3, [r7, #8]
 8003528:	68bb      	ldr	r3, [r7, #8]
 800352a:	183b      	adds	r3, r7, r0
 800352c:	2201      	movs	r2, #1
 800352e:	701a      	strb	r2, [r3, #0]
 8003530:	4b54      	ldr	r3, [pc, #336]	; (8003684 <HAL_RCCEx_PeriphCLKConfig+0x1a8>)
 8003532:	681a      	ldr	r2, [r3, #0]
 8003534:	2380      	movs	r3, #128	; 0x80
 8003536:	005b      	lsls	r3, r3, #1
 8003538:	4013      	ands	r3, r2
 800353a:	d11a      	bne.n	8003572 <HAL_RCCEx_PeriphCLKConfig+0x96>
 800353c:	4b51      	ldr	r3, [pc, #324]	; (8003684 <HAL_RCCEx_PeriphCLKConfig+0x1a8>)
 800353e:	681a      	ldr	r2, [r3, #0]
 8003540:	4b50      	ldr	r3, [pc, #320]	; (8003684 <HAL_RCCEx_PeriphCLKConfig+0x1a8>)
 8003542:	2180      	movs	r1, #128	; 0x80
 8003544:	0049      	lsls	r1, r1, #1
 8003546:	430a      	orrs	r2, r1
 8003548:	601a      	str	r2, [r3, #0]
 800354a:	f7fd fc99 	bl	8000e80 <HAL_GetTick>
 800354e:	0003      	movs	r3, r0
 8003550:	613b      	str	r3, [r7, #16]
 8003552:	e008      	b.n	8003566 <HAL_RCCEx_PeriphCLKConfig+0x8a>
 8003554:	f7fd fc94 	bl	8000e80 <HAL_GetTick>
 8003558:	0002      	movs	r2, r0
 800355a:	693b      	ldr	r3, [r7, #16]
 800355c:	1ad3      	subs	r3, r2, r3
 800355e:	2b64      	cmp	r3, #100	; 0x64
 8003560:	d901      	bls.n	8003566 <HAL_RCCEx_PeriphCLKConfig+0x8a>
 8003562:	2303      	movs	r3, #3
 8003564:	e087      	b.n	8003676 <HAL_RCCEx_PeriphCLKConfig+0x19a>
 8003566:	4b47      	ldr	r3, [pc, #284]	; (8003684 <HAL_RCCEx_PeriphCLKConfig+0x1a8>)
 8003568:	681a      	ldr	r2, [r3, #0]
 800356a:	2380      	movs	r3, #128	; 0x80
 800356c:	005b      	lsls	r3, r3, #1
 800356e:	4013      	ands	r3, r2
 8003570:	d0f0      	beq.n	8003554 <HAL_RCCEx_PeriphCLKConfig+0x78>
 8003572:	4b43      	ldr	r3, [pc, #268]	; (8003680 <HAL_RCCEx_PeriphCLKConfig+0x1a4>)
 8003574:	6a1a      	ldr	r2, [r3, #32]
 8003576:	23c0      	movs	r3, #192	; 0xc0
 8003578:	009b      	lsls	r3, r3, #2
 800357a:	4013      	ands	r3, r2
 800357c:	60fb      	str	r3, [r7, #12]
 800357e:	68fb      	ldr	r3, [r7, #12]
 8003580:	2b00      	cmp	r3, #0
 8003582:	d034      	beq.n	80035ee <HAL_RCCEx_PeriphCLKConfig+0x112>
 8003584:	687b      	ldr	r3, [r7, #4]
 8003586:	685a      	ldr	r2, [r3, #4]
 8003588:	23c0      	movs	r3, #192	; 0xc0
 800358a:	009b      	lsls	r3, r3, #2
 800358c:	4013      	ands	r3, r2
 800358e:	68fa      	ldr	r2, [r7, #12]
 8003590:	429a      	cmp	r2, r3
 8003592:	d02c      	beq.n	80035ee <HAL_RCCEx_PeriphCLKConfig+0x112>
 8003594:	4b3a      	ldr	r3, [pc, #232]	; (8003680 <HAL_RCCEx_PeriphCLKConfig+0x1a4>)
 8003596:	6a1b      	ldr	r3, [r3, #32]
 8003598:	4a3b      	ldr	r2, [pc, #236]	; (8003688 <HAL_RCCEx_PeriphCLKConfig+0x1ac>)
 800359a:	4013      	ands	r3, r2
 800359c:	60fb      	str	r3, [r7, #12]
 800359e:	4b38      	ldr	r3, [pc, #224]	; (8003680 <HAL_RCCEx_PeriphCLKConfig+0x1a4>)
 80035a0:	6a1a      	ldr	r2, [r3, #32]
 80035a2:	4b37      	ldr	r3, [pc, #220]	; (8003680 <HAL_RCCEx_PeriphCLKConfig+0x1a4>)
 80035a4:	2180      	movs	r1, #128	; 0x80
 80035a6:	0249      	lsls	r1, r1, #9
 80035a8:	430a      	orrs	r2, r1
 80035aa:	621a      	str	r2, [r3, #32]
 80035ac:	4b34      	ldr	r3, [pc, #208]	; (8003680 <HAL_RCCEx_PeriphCLKConfig+0x1a4>)
 80035ae:	6a1a      	ldr	r2, [r3, #32]
 80035b0:	4b33      	ldr	r3, [pc, #204]	; (8003680 <HAL_RCCEx_PeriphCLKConfig+0x1a4>)
 80035b2:	4936      	ldr	r1, [pc, #216]	; (800368c <HAL_RCCEx_PeriphCLKConfig+0x1b0>)
 80035b4:	400a      	ands	r2, r1
 80035b6:	621a      	str	r2, [r3, #32]
 80035b8:	4b31      	ldr	r3, [pc, #196]	; (8003680 <HAL_RCCEx_PeriphCLKConfig+0x1a4>)
 80035ba:	68fa      	ldr	r2, [r7, #12]
 80035bc:	621a      	str	r2, [r3, #32]
 80035be:	68fb      	ldr	r3, [r7, #12]
 80035c0:	2201      	movs	r2, #1
 80035c2:	4013      	ands	r3, r2
 80035c4:	d013      	beq.n	80035ee <HAL_RCCEx_PeriphCLKConfig+0x112>
 80035c6:	f7fd fc5b 	bl	8000e80 <HAL_GetTick>
 80035ca:	0003      	movs	r3, r0
 80035cc:	613b      	str	r3, [r7, #16]
 80035ce:	e009      	b.n	80035e4 <HAL_RCCEx_PeriphCLKConfig+0x108>
 80035d0:	f7fd fc56 	bl	8000e80 <HAL_GetTick>
 80035d4:	0002      	movs	r2, r0
 80035d6:	693b      	ldr	r3, [r7, #16]
 80035d8:	1ad3      	subs	r3, r2, r3
 80035da:	4a2d      	ldr	r2, [pc, #180]	; (8003690 <HAL_RCCEx_PeriphCLKConfig+0x1b4>)
 80035dc:	4293      	cmp	r3, r2
 80035de:	d901      	bls.n	80035e4 <HAL_RCCEx_PeriphCLKConfig+0x108>
 80035e0:	2303      	movs	r3, #3
 80035e2:	e048      	b.n	8003676 <HAL_RCCEx_PeriphCLKConfig+0x19a>
 80035e4:	4b26      	ldr	r3, [pc, #152]	; (8003680 <HAL_RCCEx_PeriphCLKConfig+0x1a4>)
 80035e6:	6a1b      	ldr	r3, [r3, #32]
 80035e8:	2202      	movs	r2, #2
 80035ea:	4013      	ands	r3, r2
 80035ec:	d0f0      	beq.n	80035d0 <HAL_RCCEx_PeriphCLKConfig+0xf4>
 80035ee:	4b24      	ldr	r3, [pc, #144]	; (8003680 <HAL_RCCEx_PeriphCLKConfig+0x1a4>)
 80035f0:	6a1b      	ldr	r3, [r3, #32]
 80035f2:	4a25      	ldr	r2, [pc, #148]	; (8003688 <HAL_RCCEx_PeriphCLKConfig+0x1ac>)
 80035f4:	4013      	ands	r3, r2
 80035f6:	0019      	movs	r1, r3
 80035f8:	687b      	ldr	r3, [r7, #4]
 80035fa:	685a      	ldr	r2, [r3, #4]
 80035fc:	4b20      	ldr	r3, [pc, #128]	; (8003680 <HAL_RCCEx_PeriphCLKConfig+0x1a4>)
 80035fe:	430a      	orrs	r2, r1
 8003600:	621a      	str	r2, [r3, #32]
 8003602:	2317      	movs	r3, #23
 8003604:	18fb      	adds	r3, r7, r3
 8003606:	781b      	ldrb	r3, [r3, #0]
 8003608:	2b01      	cmp	r3, #1
 800360a:	d105      	bne.n	8003618 <HAL_RCCEx_PeriphCLKConfig+0x13c>
 800360c:	4b1c      	ldr	r3, [pc, #112]	; (8003680 <HAL_RCCEx_PeriphCLKConfig+0x1a4>)
 800360e:	69da      	ldr	r2, [r3, #28]
 8003610:	4b1b      	ldr	r3, [pc, #108]	; (8003680 <HAL_RCCEx_PeriphCLKConfig+0x1a4>)
 8003612:	4920      	ldr	r1, [pc, #128]	; (8003694 <HAL_RCCEx_PeriphCLKConfig+0x1b8>)
 8003614:	400a      	ands	r2, r1
 8003616:	61da      	str	r2, [r3, #28]
 8003618:	687b      	ldr	r3, [r7, #4]
 800361a:	681b      	ldr	r3, [r3, #0]
 800361c:	2201      	movs	r2, #1
 800361e:	4013      	ands	r3, r2
 8003620:	d009      	beq.n	8003636 <HAL_RCCEx_PeriphCLKConfig+0x15a>
 8003622:	4b17      	ldr	r3, [pc, #92]	; (8003680 <HAL_RCCEx_PeriphCLKConfig+0x1a4>)
 8003624:	6b1b      	ldr	r3, [r3, #48]	; 0x30
 8003626:	2203      	movs	r2, #3
 8003628:	4393      	bics	r3, r2
 800362a:	0019      	movs	r1, r3
 800362c:	687b      	ldr	r3, [r7, #4]
 800362e:	689a      	ldr	r2, [r3, #8]
 8003630:	4b13      	ldr	r3, [pc, #76]	; (8003680 <HAL_RCCEx_PeriphCLKConfig+0x1a4>)
 8003632:	430a      	orrs	r2, r1
 8003634:	631a      	str	r2, [r3, #48]	; 0x30
 8003636:	687b      	ldr	r3, [r7, #4]
 8003638:	681b      	ldr	r3, [r3, #0]
 800363a:	2220      	movs	r2, #32
 800363c:	4013      	ands	r3, r2
 800363e:	d009      	beq.n	8003654 <HAL_RCCEx_PeriphCLKConfig+0x178>
 8003640:	4b0f      	ldr	r3, [pc, #60]	; (8003680 <HAL_RCCEx_PeriphCLKConfig+0x1a4>)
 8003642:	6b1b      	ldr	r3, [r3, #48]	; 0x30
 8003644:	2210      	movs	r2, #16
 8003646:	4393      	bics	r3, r2
 8003648:	0019      	movs	r1, r3
 800364a:	687b      	ldr	r3, [r7, #4]
 800364c:	68da      	ldr	r2, [r3, #12]
 800364e:	4b0c      	ldr	r3, [pc, #48]	; (8003680 <HAL_RCCEx_PeriphCLKConfig+0x1a4>)
 8003650:	430a      	orrs	r2, r1
 8003652:	631a      	str	r2, [r3, #48]	; 0x30
 8003654:	687b      	ldr	r3, [r7, #4]
 8003656:	681a      	ldr	r2, [r3, #0]
 8003658:	2380      	movs	r3, #128	; 0x80
 800365a:	00db      	lsls	r3, r3, #3
 800365c:	4013      	ands	r3, r2
 800365e:	d009      	beq.n	8003674 <HAL_RCCEx_PeriphCLKConfig+0x198>
 8003660:	4b07      	ldr	r3, [pc, #28]	; (8003680 <HAL_RCCEx_PeriphCLKConfig+0x1a4>)
 8003662:	6b1b      	ldr	r3, [r3, #48]	; 0x30
 8003664:	2240      	movs	r2, #64	; 0x40
 8003666:	4393      	bics	r3, r2
 8003668:	0019      	movs	r1, r3
 800366a:	687b      	ldr	r3, [r7, #4]
 800366c:	691a      	ldr	r2, [r3, #16]
 800366e:	4b04      	ldr	r3, [pc, #16]	; (8003680 <HAL_RCCEx_PeriphCLKConfig+0x1a4>)
 8003670:	430a      	orrs	r2, r1
 8003672:	631a      	str	r2, [r3, #48]	; 0x30
 8003674:	2300      	movs	r3, #0
 8003676:	0018      	movs	r0, r3
 8003678:	46bd      	mov	sp, r7
 800367a:	b006      	add	sp, #24
 800367c:	bd80      	pop	{r7, pc}
 800367e:	46c0      	nop			; (mov r8, r8)
 8003680:	40021000 	.word	0x40021000
 8003684:	40007000 	.word	0x40007000
 8003688:	fffffcff 	.word	0xfffffcff
 800368c:	fffeffff 	.word	0xfffeffff
 8003690:	00001388 	.word	0x00001388
 8003694:	efffffff 	.word	0xefffffff

08003698 <HAL_TIM_Base_Init>:
 8003698:	b580      	push	{r7, lr}
 800369a:	b082      	sub	sp, #8
 800369c:	af00      	add	r7, sp, #0
 800369e:	6078      	str	r0, [r7, #4]
 80036a0:	687b      	ldr	r3, [r7, #4]
 80036a2:	2b00      	cmp	r3, #0
 80036a4:	d101      	bne.n	80036aa <HAL_TIM_Base_Init+0x12>
 80036a6:	2301      	movs	r3, #1
 80036a8:	e042      	b.n	8003730 <HAL_TIM_Base_Init+0x98>
 80036aa:	687b      	ldr	r3, [r7, #4]
 80036ac:	223d      	movs	r2, #61	; 0x3d
 80036ae:	5c9b      	ldrb	r3, [r3, r2]
 80036b0:	b2db      	uxtb	r3, r3
 80036b2:	2b00      	cmp	r3, #0
 80036b4:	d107      	bne.n	80036c6 <HAL_TIM_Base_Init+0x2e>
 80036b6:	687b      	ldr	r3, [r7, #4]
 80036b8:	223c      	movs	r2, #60	; 0x3c
 80036ba:	2100      	movs	r1, #0
 80036bc:	5499      	strb	r1, [r3, r2]
 80036be:	687b      	ldr	r3, [r7, #4]
 80036c0:	0018      	movs	r0, r3
 80036c2:	f7fd fae7 	bl	8000c94 <HAL_TIM_Base_MspInit>
 80036c6:	687b      	ldr	r3, [r7, #4]
 80036c8:	223d      	movs	r2, #61	; 0x3d
 80036ca:	2102      	movs	r1, #2
 80036cc:	5499      	strb	r1, [r3, r2]
 80036ce:	687b      	ldr	r3, [r7, #4]
 80036d0:	681a      	ldr	r2, [r3, #0]
 80036d2:	687b      	ldr	r3, [r7, #4]
 80036d4:	3304      	adds	r3, #4
 80036d6:	0019      	movs	r1, r3
 80036d8:	0010      	movs	r0, r2
 80036da:	f000 fa3f 	bl	8003b5c <TIM_Base_SetConfig>
 80036de:	687b      	ldr	r3, [r7, #4]
 80036e0:	2246      	movs	r2, #70	; 0x46
 80036e2:	2101      	movs	r1, #1
 80036e4:	5499      	strb	r1, [r3, r2]
 80036e6:	687b      	ldr	r3, [r7, #4]
 80036e8:	223e      	movs	r2, #62	; 0x3e
 80036ea:	2101      	movs	r1, #1
 80036ec:	5499      	strb	r1, [r3, r2]
 80036ee:	687b      	ldr	r3, [r7, #4]
 80036f0:	223f      	movs	r2, #63	; 0x3f
 80036f2:	2101      	movs	r1, #1
 80036f4:	5499      	strb	r1, [r3, r2]
 80036f6:	687b      	ldr	r3, [r7, #4]
 80036f8:	2240      	movs	r2, #64	; 0x40
 80036fa:	2101      	movs	r1, #1
 80036fc:	5499      	strb	r1, [r3, r2]
 80036fe:	687b      	ldr	r3, [r7, #4]
 8003700:	2241      	movs	r2, #65	; 0x41
 8003702:	2101      	movs	r1, #1
 8003704:	5499      	strb	r1, [r3, r2]
 8003706:	687b      	ldr	r3, [r7, #4]
 8003708:	2242      	movs	r2, #66	; 0x42
 800370a:	2101      	movs	r1, #1
 800370c:	5499      	strb	r1, [r3, r2]
 800370e:	687b      	ldr	r3, [r7, #4]
 8003710:	2243      	movs	r2, #67	; 0x43
 8003712:	2101      	movs	r1, #1
 8003714:	5499      	strb	r1, [r3, r2]
 8003716:	687b      	ldr	r3, [r7, #4]
 8003718:	2244      	movs	r2, #68	; 0x44
 800371a:	2101      	movs	r1, #1
 800371c:	5499      	strb	r1, [r3, r2]
 800371e:	687b      	ldr	r3, [r7, #4]
 8003720:	2245      	movs	r2, #69	; 0x45
 8003722:	2101      	movs	r1, #1
 8003724:	5499      	strb	r1, [r3, r2]
 8003726:	687b      	ldr	r3, [r7, #4]
 8003728:	223d      	movs	r2, #61	; 0x3d
 800372a:	2101      	movs	r1, #1
 800372c:	5499      	strb	r1, [r3, r2]
 800372e:	2300      	movs	r3, #0
 8003730:	0018      	movs	r0, r3
 8003732:	46bd      	mov	sp, r7
 8003734:	b002      	add	sp, #8
 8003736:	bd80      	pop	{r7, pc}

08003738 <HAL_TIM_IRQHandler>:
 8003738:	b580      	push	{r7, lr}
 800373a:	b082      	sub	sp, #8
 800373c:	af00      	add	r7, sp, #0
 800373e:	6078      	str	r0, [r7, #4]
 8003740:	687b      	ldr	r3, [r7, #4]
 8003742:	681b      	ldr	r3, [r3, #0]
 8003744:	691b      	ldr	r3, [r3, #16]
 8003746:	2202      	movs	r2, #2
 8003748:	4013      	ands	r3, r2
 800374a:	2b02      	cmp	r3, #2
 800374c:	d124      	bne.n	8003798 <HAL_TIM_IRQHandler+0x60>
 800374e:	687b      	ldr	r3, [r7, #4]
 8003750:	681b      	ldr	r3, [r3, #0]
 8003752:	68db      	ldr	r3, [r3, #12]
 8003754:	2202      	movs	r2, #2
 8003756:	4013      	ands	r3, r2
 8003758:	2b02      	cmp	r3, #2
 800375a:	d11d      	bne.n	8003798 <HAL_TIM_IRQHandler+0x60>
 800375c:	687b      	ldr	r3, [r7, #4]
 800375e:	681b      	ldr	r3, [r3, #0]
 8003760:	2203      	movs	r2, #3
 8003762:	4252      	negs	r2, r2
 8003764:	611a      	str	r2, [r3, #16]
 8003766:	687b      	ldr	r3, [r7, #4]
 8003768:	2201      	movs	r2, #1
 800376a:	771a      	strb	r2, [r3, #28]
 800376c:	687b      	ldr	r3, [r7, #4]
 800376e:	681b      	ldr	r3, [r3, #0]
 8003770:	699b      	ldr	r3, [r3, #24]
 8003772:	2203      	movs	r2, #3
 8003774:	4013      	ands	r3, r2
 8003776:	d004      	beq.n	8003782 <HAL_TIM_IRQHandler+0x4a>
 8003778:	687b      	ldr	r3, [r7, #4]
 800377a:	0018      	movs	r0, r3
 800377c:	f000 f9d6 	bl	8003b2c <HAL_TIM_IC_CaptureCallback>
 8003780:	e007      	b.n	8003792 <HAL_TIM_IRQHandler+0x5a>
 8003782:	687b      	ldr	r3, [r7, #4]
 8003784:	0018      	movs	r0, r3
 8003786:	f000 f9c9 	bl	8003b1c <HAL_TIM_OC_DelayElapsedCallback>
 800378a:	687b      	ldr	r3, [r7, #4]
 800378c:	0018      	movs	r0, r3
 800378e:	f000 f9d5 	bl	8003b3c <HAL_TIM_PWM_PulseFinishedCallback>
 8003792:	687b      	ldr	r3, [r7, #4]
 8003794:	2200      	movs	r2, #0
 8003796:	771a      	strb	r2, [r3, #28]
 8003798:	687b      	ldr	r3, [r7, #4]
 800379a:	681b      	ldr	r3, [r3, #0]
 800379c:	691b      	ldr	r3, [r3, #16]
 800379e:	2204      	movs	r2, #4
 80037a0:	4013      	ands	r3, r2
 80037a2:	2b04      	cmp	r3, #4
 80037a4:	d125      	bne.n	80037f2 <HAL_TIM_IRQHandler+0xba>
 80037a6:	687b      	ldr	r3, [r7, #4]
 80037a8:	681b      	ldr	r3, [r3, #0]
 80037aa:	68db      	ldr	r3, [r3, #12]
 80037ac:	2204      	movs	r2, #4
 80037ae:	4013      	ands	r3, r2
 80037b0:	2b04      	cmp	r3, #4
 80037b2:	d11e      	bne.n	80037f2 <HAL_TIM_IRQHandler+0xba>
 80037b4:	687b      	ldr	r3, [r7, #4]
 80037b6:	681b      	ldr	r3, [r3, #0]
 80037b8:	2205      	movs	r2, #5
 80037ba:	4252      	negs	r2, r2
 80037bc:	611a      	str	r2, [r3, #16]
 80037be:	687b      	ldr	r3, [r7, #4]
 80037c0:	2202      	movs	r2, #2
 80037c2:	771a      	strb	r2, [r3, #28]
 80037c4:	687b      	ldr	r3, [r7, #4]
 80037c6:	681b      	ldr	r3, [r3, #0]
 80037c8:	699a      	ldr	r2, [r3, #24]
 80037ca:	23c0      	movs	r3, #192	; 0xc0
 80037cc:	009b      	lsls	r3, r3, #2
 80037ce:	4013      	ands	r3, r2
 80037d0:	d004      	beq.n	80037dc <HAL_TIM_IRQHandler+0xa4>
 80037d2:	687b      	ldr	r3, [r7, #4]
 80037d4:	0018      	movs	r0, r3
 80037d6:	f000 f9a9 	bl	8003b2c <HAL_TIM_IC_CaptureCallback>
 80037da:	e007      	b.n	80037ec <HAL_TIM_IRQHandler+0xb4>
 80037dc:	687b      	ldr	r3, [r7, #4]
 80037de:	0018      	movs	r0, r3
 80037e0:	f000 f99c 	bl	8003b1c <HAL_TIM_OC_DelayElapsedCallback>
 80037e4:	687b      	ldr	r3, [r7, #4]
 80037e6:	0018      	movs	r0, r3
 80037e8:	f000 f9a8 	bl	8003b3c <HAL_TIM_PWM_PulseFinishedCallback>
 80037ec:	687b      	ldr	r3, [r7, #4]
 80037ee:	2200      	movs	r2, #0
 80037f0:	771a      	strb	r2, [r3, #28]
 80037f2:	687b      	ldr	r3, [r7, #4]
 80037f4:	681b      	ldr	r3, [r3, #0]
 80037f6:	691b      	ldr	r3, [r3, #16]
 80037f8:	2208      	movs	r2, #8
 80037fa:	4013      	ands	r3, r2
 80037fc:	2b08      	cmp	r3, #8
 80037fe:	d124      	bne.n	800384a <HAL_TIM_IRQHandler+0x112>
 8003800:	687b      	ldr	r3, [r7, #4]
 8003802:	681b      	ldr	r3, [r3, #0]
 8003804:	68db      	ldr	r3, [r3, #12]
 8003806:	2208      	movs	r2, #8
 8003808:	4013      	ands	r3, r2
 800380a:	2b08      	cmp	r3, #8
 800380c:	d11d      	bne.n	800384a <HAL_TIM_IRQHandler+0x112>
 800380e:	687b      	ldr	r3, [r7, #4]
 8003810:	681b      	ldr	r3, [r3, #0]
 8003812:	2209      	movs	r2, #9
 8003814:	4252      	negs	r2, r2
 8003816:	611a      	str	r2, [r3, #16]
 8003818:	687b      	ldr	r3, [r7, #4]
 800381a:	2204      	movs	r2, #4
 800381c:	771a      	strb	r2, [r3, #28]
 800381e:	687b      	ldr	r3, [r7, #4]
 8003820:	681b      	ldr	r3, [r3, #0]
 8003822:	69db      	ldr	r3, [r3, #28]
 8003824:	2203      	movs	r2, #3
 8003826:	4013      	ands	r3, r2
 8003828:	d004      	beq.n	8003834 <HAL_TIM_IRQHandler+0xfc>
 800382a:	687b      	ldr	r3, [r7, #4]
 800382c:	0018      	movs	r0, r3
 800382e:	f000 f97d 	bl	8003b2c <HAL_TIM_IC_CaptureCallback>
 8003832:	e007      	b.n	8003844 <HAL_TIM_IRQHandler+0x10c>
 8003834:	687b      	ldr	r3, [r7, #4]
 8003836:	0018      	movs	r0, r3
 8003838:	f000 f970 	bl	8003b1c <HAL_TIM_OC_DelayElapsedCallback>
 800383c:	687b      	ldr	r3, [r7, #4]
 800383e:	0018      	movs	r0, r3
 8003840:	f000 f97c 	bl	8003b3c <HAL_TIM_PWM_PulseFinishedCallback>
 8003844:	687b      	ldr	r3, [r7, #4]
 8003846:	2200      	movs	r2, #0
 8003848:	771a      	strb	r2, [r3, #28]
 800384a:	687b      	ldr	r3, [r7, #4]
 800384c:	681b      	ldr	r3, [r3, #0]
 800384e:	691b      	ldr	r3, [r3, #16]
 8003850:	2210      	movs	r2, #16
 8003852:	4013      	ands	r3, r2
 8003854:	2b10      	cmp	r3, #16
 8003856:	d125      	bne.n	80038a4 <HAL_TIM_IRQHandler+0x16c>
 8003858:	687b      	ldr	r3, [r7, #4]
 800385a:	681b      	ldr	r3, [r3, #0]
 800385c:	68db      	ldr	r3, [r3, #12]
 800385e:	2210      	movs	r2, #16
 8003860:	4013      	ands	r3, r2
 8003862:	2b10      	cmp	r3, #16
 8003864:	d11e      	bne.n	80038a4 <HAL_TIM_IRQHandler+0x16c>
 8003866:	687b      	ldr	r3, [r7, #4]
 8003868:	681b      	ldr	r3, [r3, #0]
 800386a:	2211      	movs	r2, #17
 800386c:	4252      	negs	r2, r2
 800386e:	611a      	str	r2, [r3, #16]
 8003870:	687b      	ldr	r3, [r7, #4]
 8003872:	2208      	movs	r2, #8
 8003874:	771a      	strb	r2, [r3, #28]
 8003876:	687b      	ldr	r3, [r7, #4]
 8003878:	681b      	ldr	r3, [r3, #0]
 800387a:	69da      	ldr	r2, [r3, #28]
 800387c:	23c0      	movs	r3, #192	; 0xc0
 800387e:	009b      	lsls	r3, r3, #2
 8003880:	4013      	ands	r3, r2
 8003882:	d004      	beq.n	800388e <HAL_TIM_IRQHandler+0x156>
 8003884:	687b      	ldr	r3, [r7, #4]
 8003886:	0018      	movs	r0, r3
 8003888:	f000 f950 	bl	8003b2c <HAL_TIM_IC_CaptureCallback>
 800388c:	e007      	b.n	800389e <HAL_TIM_IRQHandler+0x166>
 800388e:	687b      	ldr	r3, [r7, #4]
 8003890:	0018      	movs	r0, r3
 8003892:	f000 f943 	bl	8003b1c <HAL_TIM_OC_DelayElapsedCallback>
 8003896:	687b      	ldr	r3, [r7, #4]
 8003898:	0018      	movs	r0, r3
 800389a:	f000 f94f 	bl	8003b3c <HAL_TIM_PWM_PulseFinishedCallback>
 800389e:	687b      	ldr	r3, [r7, #4]
 80038a0:	2200      	movs	r2, #0
 80038a2:	771a      	strb	r2, [r3, #28]
 80038a4:	687b      	ldr	r3, [r7, #4]
 80038a6:	681b      	ldr	r3, [r3, #0]
 80038a8:	691b      	ldr	r3, [r3, #16]
 80038aa:	2201      	movs	r2, #1
 80038ac:	4013      	ands	r3, r2
 80038ae:	2b01      	cmp	r3, #1
 80038b0:	d10f      	bne.n	80038d2 <HAL_TIM_IRQHandler+0x19a>
 80038b2:	687b      	ldr	r3, [r7, #4]
 80038b4:	681b      	ldr	r3, [r3, #0]
 80038b6:	68db      	ldr	r3, [r3, #12]
 80038b8:	2201      	movs	r2, #1
 80038ba:	4013      	ands	r3, r2
 80038bc:	2b01      	cmp	r3, #1
 80038be:	d108      	bne.n	80038d2 <HAL_TIM_IRQHandler+0x19a>
 80038c0:	687b      	ldr	r3, [r7, #4]
 80038c2:	681b      	ldr	r3, [r3, #0]
 80038c4:	2202      	movs	r2, #2
 80038c6:	4252      	negs	r2, r2
 80038c8:	611a      	str	r2, [r3, #16]
 80038ca:	687b      	ldr	r3, [r7, #4]
 80038cc:	0018      	movs	r0, r3
 80038ce:	f000 f91d 	bl	8003b0c <HAL_TIM_PeriodElapsedCallback>
 80038d2:	687b      	ldr	r3, [r7, #4]
 80038d4:	681b      	ldr	r3, [r3, #0]
 80038d6:	691b      	ldr	r3, [r3, #16]
 80038d8:	2280      	movs	r2, #128	; 0x80
 80038da:	4013      	ands	r3, r2
 80038dc:	2b80      	cmp	r3, #128	; 0x80
 80038de:	d10f      	bne.n	8003900 <HAL_TIM_IRQHandler+0x1c8>
 80038e0:	687b      	ldr	r3, [r7, #4]
 80038e2:	681b      	ldr	r3, [r3, #0]
 80038e4:	68db      	ldr	r3, [r3, #12]
 80038e6:	2280      	movs	r2, #128	; 0x80
 80038e8:	4013      	ands	r3, r2
 80038ea:	2b80      	cmp	r3, #128	; 0x80
 80038ec:	d108      	bne.n	8003900 <HAL_TIM_IRQHandler+0x1c8>
 80038ee:	687b      	ldr	r3, [r7, #4]
 80038f0:	681b      	ldr	r3, [r3, #0]
 80038f2:	2281      	movs	r2, #129	; 0x81
 80038f4:	4252      	negs	r2, r2
 80038f6:	611a      	str	r2, [r3, #16]
 80038f8:	687b      	ldr	r3, [r7, #4]
 80038fa:	0018      	movs	r0, r3
 80038fc:	f000 faae 	bl	8003e5c <HAL_TIMEx_BreakCallback>
 8003900:	687b      	ldr	r3, [r7, #4]
 8003902:	681b      	ldr	r3, [r3, #0]
 8003904:	691b      	ldr	r3, [r3, #16]
 8003906:	2240      	movs	r2, #64	; 0x40
 8003908:	4013      	ands	r3, r2
 800390a:	2b40      	cmp	r3, #64	; 0x40
 800390c:	d10f      	bne.n	800392e <HAL_TIM_IRQHandler+0x1f6>
 800390e:	687b      	ldr	r3, [r7, #4]
 8003910:	681b      	ldr	r3, [r3, #0]
 8003912:	68db      	ldr	r3, [r3, #12]
 8003914:	2240      	movs	r2, #64	; 0x40
 8003916:	4013      	ands	r3, r2
 8003918:	2b40      	cmp	r3, #64	; 0x40
 800391a:	d108      	bne.n	800392e <HAL_TIM_IRQHandler+0x1f6>
 800391c:	687b      	ldr	r3, [r7, #4]
 800391e:	681b      	ldr	r3, [r3, #0]
 8003920:	2241      	movs	r2, #65	; 0x41
 8003922:	4252      	negs	r2, r2
 8003924:	611a      	str	r2, [r3, #16]
 8003926:	687b      	ldr	r3, [r7, #4]
 8003928:	0018      	movs	r0, r3
 800392a:	f000 f90f 	bl	8003b4c <HAL_TIM_TriggerCallback>
 800392e:	687b      	ldr	r3, [r7, #4]
 8003930:	681b      	ldr	r3, [r3, #0]
 8003932:	691b      	ldr	r3, [r3, #16]
 8003934:	2220      	movs	r2, #32
 8003936:	4013      	ands	r3, r2
 8003938:	2b20      	cmp	r3, #32
 800393a:	d10f      	bne.n	800395c <HAL_TIM_IRQHandler+0x224>
 800393c:	687b      	ldr	r3, [r7, #4]
 800393e:	681b      	ldr	r3, [r3, #0]
 8003940:	68db      	ldr	r3, [r3, #12]
 8003942:	2220      	movs	r2, #32
 8003944:	4013      	ands	r3, r2
 8003946:	2b20      	cmp	r3, #32
 8003948:	d108      	bne.n	800395c <HAL_TIM_IRQHandler+0x224>
 800394a:	687b      	ldr	r3, [r7, #4]
 800394c:	681b      	ldr	r3, [r3, #0]
 800394e:	2221      	movs	r2, #33	; 0x21
 8003950:	4252      	negs	r2, r2
 8003952:	611a      	str	r2, [r3, #16]
 8003954:	687b      	ldr	r3, [r7, #4]
 8003956:	0018      	movs	r0, r3
 8003958:	f000 fa78 	bl	8003e4c <HAL_TIMEx_CommutCallback>
 800395c:	46c0      	nop			; (mov r8, r8)
 800395e:	46bd      	mov	sp, r7
 8003960:	b002      	add	sp, #8
 8003962:	bd80      	pop	{r7, pc}

08003964 <HAL_TIM_ConfigClockSource>:
 8003964:	b580      	push	{r7, lr}
 8003966:	b084      	sub	sp, #16
 8003968:	af00      	add	r7, sp, #0
 800396a:	6078      	str	r0, [r7, #4]
 800396c:	6039      	str	r1, [r7, #0]
 800396e:	230f      	movs	r3, #15
 8003970:	18fb      	adds	r3, r7, r3
 8003972:	2200      	movs	r2, #0
 8003974:	701a      	strb	r2, [r3, #0]
 8003976:	687b      	ldr	r3, [r7, #4]
 8003978:	223c      	movs	r2, #60	; 0x3c
 800397a:	5c9b      	ldrb	r3, [r3, r2]
 800397c:	2b01      	cmp	r3, #1
 800397e:	d101      	bne.n	8003984 <HAL_TIM_ConfigClockSource+0x20>
 8003980:	2302      	movs	r3, #2
 8003982:	e0bc      	b.n	8003afe <HAL_TIM_ConfigClockSource+0x19a>
 8003984:	687b      	ldr	r3, [r7, #4]
 8003986:	223c      	movs	r2, #60	; 0x3c
 8003988:	2101      	movs	r1, #1
 800398a:	5499      	strb	r1, [r3, r2]
 800398c:	687b      	ldr	r3, [r7, #4]
 800398e:	223d      	movs	r2, #61	; 0x3d
 8003990:	2102      	movs	r1, #2
 8003992:	5499      	strb	r1, [r3, r2]
 8003994:	687b      	ldr	r3, [r7, #4]
 8003996:	681b      	ldr	r3, [r3, #0]
 8003998:	689b      	ldr	r3, [r3, #8]
 800399a:	60bb      	str	r3, [r7, #8]
 800399c:	68bb      	ldr	r3, [r7, #8]
 800399e:	2277      	movs	r2, #119	; 0x77
 80039a0:	4393      	bics	r3, r2
 80039a2:	60bb      	str	r3, [r7, #8]
 80039a4:	68bb      	ldr	r3, [r7, #8]
 80039a6:	4a58      	ldr	r2, [pc, #352]	; (8003b08 <HAL_TIM_ConfigClockSource+0x1a4>)
 80039a8:	4013      	ands	r3, r2
 80039aa:	60bb      	str	r3, [r7, #8]
 80039ac:	687b      	ldr	r3, [r7, #4]
 80039ae:	681b      	ldr	r3, [r3, #0]
 80039b0:	68ba      	ldr	r2, [r7, #8]
 80039b2:	609a      	str	r2, [r3, #8]
 80039b4:	683b      	ldr	r3, [r7, #0]
 80039b6:	681b      	ldr	r3, [r3, #0]
 80039b8:	2280      	movs	r2, #128	; 0x80
 80039ba:	0192      	lsls	r2, r2, #6
 80039bc:	4293      	cmp	r3, r2
 80039be:	d040      	beq.n	8003a42 <HAL_TIM_ConfigClockSource+0xde>
 80039c0:	2280      	movs	r2, #128	; 0x80
 80039c2:	0192      	lsls	r2, r2, #6
 80039c4:	4293      	cmp	r3, r2
 80039c6:	d900      	bls.n	80039ca <HAL_TIM_ConfigClockSource+0x66>
 80039c8:	e088      	b.n	8003adc <HAL_TIM_ConfigClockSource+0x178>
 80039ca:	2280      	movs	r2, #128	; 0x80
 80039cc:	0152      	lsls	r2, r2, #5
 80039ce:	4293      	cmp	r3, r2
 80039d0:	d100      	bne.n	80039d4 <HAL_TIM_ConfigClockSource+0x70>
 80039d2:	e088      	b.n	8003ae6 <HAL_TIM_ConfigClockSource+0x182>
 80039d4:	2280      	movs	r2, #128	; 0x80
 80039d6:	0152      	lsls	r2, r2, #5
 80039d8:	4293      	cmp	r3, r2
 80039da:	d900      	bls.n	80039de <HAL_TIM_ConfigClockSource+0x7a>
 80039dc:	e07e      	b.n	8003adc <HAL_TIM_ConfigClockSource+0x178>
 80039de:	2b70      	cmp	r3, #112	; 0x70
 80039e0:	d018      	beq.n	8003a14 <HAL_TIM_ConfigClockSource+0xb0>
 80039e2:	d900      	bls.n	80039e6 <HAL_TIM_ConfigClockSource+0x82>
 80039e4:	e07a      	b.n	8003adc <HAL_TIM_ConfigClockSource+0x178>
 80039e6:	2b60      	cmp	r3, #96	; 0x60
 80039e8:	d04f      	beq.n	8003a8a <HAL_TIM_ConfigClockSource+0x126>
 80039ea:	d900      	bls.n	80039ee <HAL_TIM_ConfigClockSource+0x8a>
 80039ec:	e076      	b.n	8003adc <HAL_TIM_ConfigClockSource+0x178>
 80039ee:	2b50      	cmp	r3, #80	; 0x50
 80039f0:	d03b      	beq.n	8003a6a <HAL_TIM_ConfigClockSource+0x106>
 80039f2:	d900      	bls.n	80039f6 <HAL_TIM_ConfigClockSource+0x92>
 80039f4:	e072      	b.n	8003adc <HAL_TIM_ConfigClockSource+0x178>
 80039f6:	2b40      	cmp	r3, #64	; 0x40
 80039f8:	d057      	beq.n	8003aaa <HAL_TIM_ConfigClockSource+0x146>
 80039fa:	d900      	bls.n	80039fe <HAL_TIM_ConfigClockSource+0x9a>
 80039fc:	e06e      	b.n	8003adc <HAL_TIM_ConfigClockSource+0x178>
 80039fe:	2b30      	cmp	r3, #48	; 0x30
 8003a00:	d063      	beq.n	8003aca <HAL_TIM_ConfigClockSource+0x166>
 8003a02:	d86b      	bhi.n	8003adc <HAL_TIM_ConfigClockSource+0x178>
 8003a04:	2b20      	cmp	r3, #32
 8003a06:	d060      	beq.n	8003aca <HAL_TIM_ConfigClockSource+0x166>
 8003a08:	d868      	bhi.n	8003adc <HAL_TIM_ConfigClockSource+0x178>
 8003a0a:	2b00      	cmp	r3, #0
 8003a0c:	d05d      	beq.n	8003aca <HAL_TIM_ConfigClockSource+0x166>
 8003a0e:	2b10      	cmp	r3, #16
 8003a10:	d05b      	beq.n	8003aca <HAL_TIM_ConfigClockSource+0x166>
 8003a12:	e063      	b.n	8003adc <HAL_TIM_ConfigClockSource+0x178>
 8003a14:	687b      	ldr	r3, [r7, #4]
 8003a16:	6818      	ldr	r0, [r3, #0]
 8003a18:	683b      	ldr	r3, [r7, #0]
 8003a1a:	6899      	ldr	r1, [r3, #8]
 8003a1c:	683b      	ldr	r3, [r7, #0]
 8003a1e:	685a      	ldr	r2, [r3, #4]
 8003a20:	683b      	ldr	r3, [r7, #0]
 8003a22:	68db      	ldr	r3, [r3, #12]
 8003a24:	f000 f994 	bl	8003d50 <TIM_ETR_SetConfig>
 8003a28:	687b      	ldr	r3, [r7, #4]
 8003a2a:	681b      	ldr	r3, [r3, #0]
 8003a2c:	689b      	ldr	r3, [r3, #8]
 8003a2e:	60bb      	str	r3, [r7, #8]
 8003a30:	68bb      	ldr	r3, [r7, #8]
 8003a32:	2277      	movs	r2, #119	; 0x77
 8003a34:	4313      	orrs	r3, r2
 8003a36:	60bb      	str	r3, [r7, #8]
 8003a38:	687b      	ldr	r3, [r7, #4]
 8003a3a:	681b      	ldr	r3, [r3, #0]
 8003a3c:	68ba      	ldr	r2, [r7, #8]
 8003a3e:	609a      	str	r2, [r3, #8]
 8003a40:	e052      	b.n	8003ae8 <HAL_TIM_ConfigClockSource+0x184>
 8003a42:	687b      	ldr	r3, [r7, #4]
 8003a44:	6818      	ldr	r0, [r3, #0]
 8003a46:	683b      	ldr	r3, [r7, #0]
 8003a48:	6899      	ldr	r1, [r3, #8]
 8003a4a:	683b      	ldr	r3, [r7, #0]
 8003a4c:	685a      	ldr	r2, [r3, #4]
 8003a4e:	683b      	ldr	r3, [r7, #0]
 8003a50:	68db      	ldr	r3, [r3, #12]
 8003a52:	f000 f97d 	bl	8003d50 <TIM_ETR_SetConfig>
 8003a56:	687b      	ldr	r3, [r7, #4]
 8003a58:	681b      	ldr	r3, [r3, #0]
 8003a5a:	689a      	ldr	r2, [r3, #8]
 8003a5c:	687b      	ldr	r3, [r7, #4]
 8003a5e:	681b      	ldr	r3, [r3, #0]
 8003a60:	2180      	movs	r1, #128	; 0x80
 8003a62:	01c9      	lsls	r1, r1, #7
 8003a64:	430a      	orrs	r2, r1
 8003a66:	609a      	str	r2, [r3, #8]
 8003a68:	e03e      	b.n	8003ae8 <HAL_TIM_ConfigClockSource+0x184>
 8003a6a:	687b      	ldr	r3, [r7, #4]
 8003a6c:	6818      	ldr	r0, [r3, #0]
 8003a6e:	683b      	ldr	r3, [r7, #0]
 8003a70:	6859      	ldr	r1, [r3, #4]
 8003a72:	683b      	ldr	r3, [r7, #0]
 8003a74:	68db      	ldr	r3, [r3, #12]
 8003a76:	001a      	movs	r2, r3
 8003a78:	f000 f8f0 	bl	8003c5c <TIM_TI1_ConfigInputStage>
 8003a7c:	687b      	ldr	r3, [r7, #4]
 8003a7e:	681b      	ldr	r3, [r3, #0]
 8003a80:	2150      	movs	r1, #80	; 0x50
 8003a82:	0018      	movs	r0, r3
 8003a84:	f000 f94a 	bl	8003d1c <TIM_ITRx_SetConfig>
 8003a88:	e02e      	b.n	8003ae8 <HAL_TIM_ConfigClockSource+0x184>
 8003a8a:	687b      	ldr	r3, [r7, #4]
 8003a8c:	6818      	ldr	r0, [r3, #0]
 8003a8e:	683b      	ldr	r3, [r7, #0]
 8003a90:	6859      	ldr	r1, [r3, #4]
 8003a92:	683b      	ldr	r3, [r7, #0]
 8003a94:	68db      	ldr	r3, [r3, #12]
 8003a96:	001a      	movs	r2, r3
 8003a98:	f000 f90e 	bl	8003cb8 <TIM_TI2_ConfigInputStage>
 8003a9c:	687b      	ldr	r3, [r7, #4]
 8003a9e:	681b      	ldr	r3, [r3, #0]
 8003aa0:	2160      	movs	r1, #96	; 0x60
 8003aa2:	0018      	movs	r0, r3
 8003aa4:	f000 f93a 	bl	8003d1c <TIM_ITRx_SetConfig>
 8003aa8:	e01e      	b.n	8003ae8 <HAL_TIM_ConfigClockSource+0x184>
 8003aaa:	687b      	ldr	r3, [r7, #4]
 8003aac:	6818      	ldr	r0, [r3, #0]
 8003aae:	683b      	ldr	r3, [r7, #0]
 8003ab0:	6859      	ldr	r1, [r3, #4]
 8003ab2:	683b      	ldr	r3, [r7, #0]
 8003ab4:	68db      	ldr	r3, [r3, #12]
 8003ab6:	001a      	movs	r2, r3
 8003ab8:	f000 f8d0 	bl	8003c5c <TIM_TI1_ConfigInputStage>
 8003abc:	687b      	ldr	r3, [r7, #4]
 8003abe:	681b      	ldr	r3, [r3, #0]
 8003ac0:	2140      	movs	r1, #64	; 0x40
 8003ac2:	0018      	movs	r0, r3
 8003ac4:	f000 f92a 	bl	8003d1c <TIM_ITRx_SetConfig>
 8003ac8:	e00e      	b.n	8003ae8 <HAL_TIM_ConfigClockSource+0x184>
 8003aca:	687b      	ldr	r3, [r7, #4]
 8003acc:	681a      	ldr	r2, [r3, #0]
 8003ace:	683b      	ldr	r3, [r7, #0]
 8003ad0:	681b      	ldr	r3, [r3, #0]
 8003ad2:	0019      	movs	r1, r3
 8003ad4:	0010      	movs	r0, r2
 8003ad6:	f000 f921 	bl	8003d1c <TIM_ITRx_SetConfig>
 8003ada:	e005      	b.n	8003ae8 <HAL_TIM_ConfigClockSource+0x184>
 8003adc:	230f      	movs	r3, #15
 8003ade:	18fb      	adds	r3, r7, r3
 8003ae0:	2201      	movs	r2, #1
 8003ae2:	701a      	strb	r2, [r3, #0]
 8003ae4:	e000      	b.n	8003ae8 <HAL_TIM_ConfigClockSource+0x184>
 8003ae6:	46c0      	nop			; (mov r8, r8)
 8003ae8:	687b      	ldr	r3, [r7, #4]
 8003aea:	223d      	movs	r2, #61	; 0x3d
 8003aec:	2101      	movs	r1, #1
 8003aee:	5499      	strb	r1, [r3, r2]
 8003af0:	687b      	ldr	r3, [r7, #4]
 8003af2:	223c      	movs	r2, #60	; 0x3c
 8003af4:	2100      	movs	r1, #0
 8003af6:	5499      	strb	r1, [r3, r2]
 8003af8:	230f      	movs	r3, #15
 8003afa:	18fb      	adds	r3, r7, r3
 8003afc:	781b      	ldrb	r3, [r3, #0]
 8003afe:	0018      	movs	r0, r3
 8003b00:	46bd      	mov	sp, r7
 8003b02:	b004      	add	sp, #16
 8003b04:	bd80      	pop	{r7, pc}
 8003b06:	46c0      	nop			; (mov r8, r8)
 8003b08:	ffff00ff 	.word	0xffff00ff

08003b0c <HAL_TIM_PeriodElapsedCallback>:
 8003b0c:	b580      	push	{r7, lr}
 8003b0e:	b082      	sub	sp, #8
 8003b10:	af00      	add	r7, sp, #0
 8003b12:	6078      	str	r0, [r7, #4]
 8003b14:	46c0      	nop			; (mov r8, r8)
 8003b16:	46bd      	mov	sp, r7
 8003b18:	b002      	add	sp, #8
 8003b1a:	bd80      	pop	{r7, pc}

08003b1c <HAL_TIM_OC_DelayElapsedCallback>:
 8003b1c:	b580      	push	{r7, lr}
 8003b1e:	b082      	sub	sp, #8
 8003b20:	af00      	add	r7, sp, #0
 8003b22:	6078      	str	r0, [r7, #4]
 8003b24:	46c0      	nop			; (mov r8, r8)
 8003b26:	46bd      	mov	sp, r7
 8003b28:	b002      	add	sp, #8
 8003b2a:	bd80      	pop	{r7, pc}

08003b2c <HAL_TIM_IC_CaptureCallback>:
 8003b2c:	b580      	push	{r7, lr}
 8003b2e:	b082      	sub	sp, #8
 8003b30:	af00      	add	r7, sp, #0
 8003b32:	6078      	str	r0, [r7, #4]
 8003b34:	46c0      	nop			; (mov r8, r8)
 8003b36:	46bd      	mov	sp, r7
 8003b38:	b002      	add	sp, #8
 8003b3a:	bd80      	pop	{r7, pc}

08003b3c <HAL_TIM_PWM_PulseFinishedCallback>:
 8003b3c:	b580      	push	{r7, lr}
 8003b3e:	b082      	sub	sp, #8
 8003b40:	af00      	add	r7, sp, #0
 8003b42:	6078      	str	r0, [r7, #4]
 8003b44:	46c0      	nop			; (mov r8, r8)
 8003b46:	46bd      	mov	sp, r7
 8003b48:	b002      	add	sp, #8
 8003b4a:	bd80      	pop	{r7, pc}

08003b4c <HAL_TIM_TriggerCallback>:
 8003b4c:	b580      	push	{r7, lr}
 8003b4e:	b082      	sub	sp, #8
 8003b50:	af00      	add	r7, sp, #0
 8003b52:	6078      	str	r0, [r7, #4]
 8003b54:	46c0      	nop			; (mov r8, r8)
 8003b56:	46bd      	mov	sp, r7
 8003b58:	b002      	add	sp, #8
 8003b5a:	bd80      	pop	{r7, pc}

08003b5c <TIM_Base_SetConfig>:
 8003b5c:	b580      	push	{r7, lr}
 8003b5e:	b084      	sub	sp, #16
 8003b60:	af00      	add	r7, sp, #0
 8003b62:	6078      	str	r0, [r7, #4]
 8003b64:	6039      	str	r1, [r7, #0]
 8003b66:	687b      	ldr	r3, [r7, #4]
 8003b68:	681b      	ldr	r3, [r3, #0]
 8003b6a:	60fb      	str	r3, [r7, #12]
 8003b6c:	687b      	ldr	r3, [r7, #4]
 8003b6e:	4a34      	ldr	r2, [pc, #208]	; (8003c40 <TIM_Base_SetConfig+0xe4>)
 8003b70:	4293      	cmp	r3, r2
 8003b72:	d008      	beq.n	8003b86 <TIM_Base_SetConfig+0x2a>
 8003b74:	687a      	ldr	r2, [r7, #4]
 8003b76:	2380      	movs	r3, #128	; 0x80
 8003b78:	05db      	lsls	r3, r3, #23
 8003b7a:	429a      	cmp	r2, r3
 8003b7c:	d003      	beq.n	8003b86 <TIM_Base_SetConfig+0x2a>
 8003b7e:	687b      	ldr	r3, [r7, #4]
 8003b80:	4a30      	ldr	r2, [pc, #192]	; (8003c44 <TIM_Base_SetConfig+0xe8>)
 8003b82:	4293      	cmp	r3, r2
 8003b84:	d108      	bne.n	8003b98 <TIM_Base_SetConfig+0x3c>
 8003b86:	68fb      	ldr	r3, [r7, #12]
 8003b88:	2270      	movs	r2, #112	; 0x70
 8003b8a:	4393      	bics	r3, r2
 8003b8c:	60fb      	str	r3, [r7, #12]
 8003b8e:	683b      	ldr	r3, [r7, #0]
 8003b90:	685b      	ldr	r3, [r3, #4]
 8003b92:	68fa      	ldr	r2, [r7, #12]
 8003b94:	4313      	orrs	r3, r2
 8003b96:	60fb      	str	r3, [r7, #12]
 8003b98:	687b      	ldr	r3, [r7, #4]
 8003b9a:	4a29      	ldr	r2, [pc, #164]	; (8003c40 <TIM_Base_SetConfig+0xe4>)
 8003b9c:	4293      	cmp	r3, r2
 8003b9e:	d018      	beq.n	8003bd2 <TIM_Base_SetConfig+0x76>
 8003ba0:	687a      	ldr	r2, [r7, #4]
 8003ba2:	2380      	movs	r3, #128	; 0x80
 8003ba4:	05db      	lsls	r3, r3, #23
 8003ba6:	429a      	cmp	r2, r3
 8003ba8:	d013      	beq.n	8003bd2 <TIM_Base_SetConfig+0x76>
 8003baa:	687b      	ldr	r3, [r7, #4]
 8003bac:	4a25      	ldr	r2, [pc, #148]	; (8003c44 <TIM_Base_SetConfig+0xe8>)
 8003bae:	4293      	cmp	r3, r2
 8003bb0:	d00f      	beq.n	8003bd2 <TIM_Base_SetConfig+0x76>
 8003bb2:	687b      	ldr	r3, [r7, #4]
 8003bb4:	4a24      	ldr	r2, [pc, #144]	; (8003c48 <TIM_Base_SetConfig+0xec>)
 8003bb6:	4293      	cmp	r3, r2
 8003bb8:	d00b      	beq.n	8003bd2 <TIM_Base_SetConfig+0x76>
 8003bba:	687b      	ldr	r3, [r7, #4]
 8003bbc:	4a23      	ldr	r2, [pc, #140]	; (8003c4c <TIM_Base_SetConfig+0xf0>)
 8003bbe:	4293      	cmp	r3, r2
 8003bc0:	d007      	beq.n	8003bd2 <TIM_Base_SetConfig+0x76>
 8003bc2:	687b      	ldr	r3, [r7, #4]
 8003bc4:	4a22      	ldr	r2, [pc, #136]	; (8003c50 <TIM_Base_SetConfig+0xf4>)
 8003bc6:	4293      	cmp	r3, r2
 8003bc8:	d003      	beq.n	8003bd2 <TIM_Base_SetConfig+0x76>
 8003bca:	687b      	ldr	r3, [r7, #4]
 8003bcc:	4a21      	ldr	r2, [pc, #132]	; (8003c54 <TIM_Base_SetConfig+0xf8>)
 8003bce:	4293      	cmp	r3, r2
 8003bd0:	d108      	bne.n	8003be4 <TIM_Base_SetConfig+0x88>
 8003bd2:	68fb      	ldr	r3, [r7, #12]
 8003bd4:	4a20      	ldr	r2, [pc, #128]	; (8003c58 <TIM_Base_SetConfig+0xfc>)
 8003bd6:	4013      	ands	r3, r2
 8003bd8:	60fb      	str	r3, [r7, #12]
 8003bda:	683b      	ldr	r3, [r7, #0]
 8003bdc:	68db      	ldr	r3, [r3, #12]
 8003bde:	68fa      	ldr	r2, [r7, #12]
 8003be0:	4313      	orrs	r3, r2
 8003be2:	60fb      	str	r3, [r7, #12]
 8003be4:	68fb      	ldr	r3, [r7, #12]
 8003be6:	2280      	movs	r2, #128	; 0x80
 8003be8:	4393      	bics	r3, r2
 8003bea:	001a      	movs	r2, r3
 8003bec:	683b      	ldr	r3, [r7, #0]
 8003bee:	695b      	ldr	r3, [r3, #20]
 8003bf0:	4313      	orrs	r3, r2
 8003bf2:	60fb      	str	r3, [r7, #12]
 8003bf4:	687b      	ldr	r3, [r7, #4]
 8003bf6:	68fa      	ldr	r2, [r7, #12]
 8003bf8:	601a      	str	r2, [r3, #0]
 8003bfa:	683b      	ldr	r3, [r7, #0]
 8003bfc:	689a      	ldr	r2, [r3, #8]
 8003bfe:	687b      	ldr	r3, [r7, #4]
 8003c00:	62da      	str	r2, [r3, #44]	; 0x2c
 8003c02:	683b      	ldr	r3, [r7, #0]
 8003c04:	681a      	ldr	r2, [r3, #0]
 8003c06:	687b      	ldr	r3, [r7, #4]
 8003c08:	629a      	str	r2, [r3, #40]	; 0x28
 8003c0a:	687b      	ldr	r3, [r7, #4]
 8003c0c:	4a0c      	ldr	r2, [pc, #48]	; (8003c40 <TIM_Base_SetConfig+0xe4>)
 8003c0e:	4293      	cmp	r3, r2
 8003c10:	d00b      	beq.n	8003c2a <TIM_Base_SetConfig+0xce>
 8003c12:	687b      	ldr	r3, [r7, #4]
 8003c14:	4a0d      	ldr	r2, [pc, #52]	; (8003c4c <TIM_Base_SetConfig+0xf0>)
 8003c16:	4293      	cmp	r3, r2
 8003c18:	d007      	beq.n	8003c2a <TIM_Base_SetConfig+0xce>
 8003c1a:	687b      	ldr	r3, [r7, #4]
 8003c1c:	4a0c      	ldr	r2, [pc, #48]	; (8003c50 <TIM_Base_SetConfig+0xf4>)
 8003c1e:	4293      	cmp	r3, r2
 8003c20:	d003      	beq.n	8003c2a <TIM_Base_SetConfig+0xce>
 8003c22:	687b      	ldr	r3, [r7, #4]
 8003c24:	4a0b      	ldr	r2, [pc, #44]	; (8003c54 <TIM_Base_SetConfig+0xf8>)
 8003c26:	4293      	cmp	r3, r2
 8003c28:	d103      	bne.n	8003c32 <TIM_Base_SetConfig+0xd6>
 8003c2a:	683b      	ldr	r3, [r7, #0]
 8003c2c:	691a      	ldr	r2, [r3, #16]
 8003c2e:	687b      	ldr	r3, [r7, #4]
 8003c30:	631a      	str	r2, [r3, #48]	; 0x30
 8003c32:	687b      	ldr	r3, [r7, #4]
 8003c34:	2201      	movs	r2, #1
 8003c36:	615a      	str	r2, [r3, #20]
 8003c38:	46c0      	nop			; (mov r8, r8)
 8003c3a:	46bd      	mov	sp, r7
 8003c3c:	b004      	add	sp, #16
 8003c3e:	bd80      	pop	{r7, pc}
 8003c40:	40012c00 	.word	0x40012c00
 8003c44:	40000400 	.word	0x40000400
 8003c48:	40002000 	.word	0x40002000
 8003c4c:	40014000 	.word	0x40014000
 8003c50:	40014400 	.word	0x40014400
 8003c54:	40014800 	.word	0x40014800
 8003c58:	fffffcff 	.word	0xfffffcff

08003c5c <TIM_TI1_ConfigInputStage>:
 8003c5c:	b580      	push	{r7, lr}
 8003c5e:	b086      	sub	sp, #24
 8003c60:	af00      	add	r7, sp, #0
 8003c62:	60f8      	str	r0, [r7, #12]
 8003c64:	60b9      	str	r1, [r7, #8]
 8003c66:	607a      	str	r2, [r7, #4]
 8003c68:	68fb      	ldr	r3, [r7, #12]
 8003c6a:	6a1b      	ldr	r3, [r3, #32]
 8003c6c:	617b      	str	r3, [r7, #20]
 8003c6e:	68fb      	ldr	r3, [r7, #12]
 8003c70:	6a1b      	ldr	r3, [r3, #32]
 8003c72:	2201      	movs	r2, #1
 8003c74:	4393      	bics	r3, r2
 8003c76:	001a      	movs	r2, r3
 8003c78:	68fb      	ldr	r3, [r7, #12]
 8003c7a:	621a      	str	r2, [r3, #32]
 8003c7c:	68fb      	ldr	r3, [r7, #12]
 8003c7e:	699b      	ldr	r3, [r3, #24]
 8003c80:	613b      	str	r3, [r7, #16]
 8003c82:	693b      	ldr	r3, [r7, #16]
 8003c84:	22f0      	movs	r2, #240	; 0xf0
 8003c86:	4393      	bics	r3, r2
 8003c88:	613b      	str	r3, [r7, #16]
 8003c8a:	687b      	ldr	r3, [r7, #4]
 8003c8c:	011b      	lsls	r3, r3, #4
 8003c8e:	693a      	ldr	r2, [r7, #16]
 8003c90:	4313      	orrs	r3, r2
 8003c92:	613b      	str	r3, [r7, #16]
 8003c94:	697b      	ldr	r3, [r7, #20]
 8003c96:	220a      	movs	r2, #10
 8003c98:	4393      	bics	r3, r2
 8003c9a:	617b      	str	r3, [r7, #20]
 8003c9c:	697a      	ldr	r2, [r7, #20]
 8003c9e:	68bb      	ldr	r3, [r7, #8]
 8003ca0:	4313      	orrs	r3, r2
 8003ca2:	617b      	str	r3, [r7, #20]
 8003ca4:	68fb      	ldr	r3, [r7, #12]
 8003ca6:	693a      	ldr	r2, [r7, #16]
 8003ca8:	619a      	str	r2, [r3, #24]
 8003caa:	68fb      	ldr	r3, [r7, #12]
 8003cac:	697a      	ldr	r2, [r7, #20]
 8003cae:	621a      	str	r2, [r3, #32]
 8003cb0:	46c0      	nop			; (mov r8, r8)
 8003cb2:	46bd      	mov	sp, r7
 8003cb4:	b006      	add	sp, #24
 8003cb6:	bd80      	pop	{r7, pc}

08003cb8 <TIM_TI2_ConfigInputStage>:
 8003cb8:	b580      	push	{r7, lr}
 8003cba:	b086      	sub	sp, #24
 8003cbc:	af00      	add	r7, sp, #0
 8003cbe:	60f8      	str	r0, [r7, #12]
 8003cc0:	60b9      	str	r1, [r7, #8]
 8003cc2:	607a      	str	r2, [r7, #4]
 8003cc4:	68fb      	ldr	r3, [r7, #12]
 8003cc6:	6a1b      	ldr	r3, [r3, #32]
 8003cc8:	2210      	movs	r2, #16
 8003cca:	4393      	bics	r3, r2
 8003ccc:	001a      	movs	r2, r3
 8003cce:	68fb      	ldr	r3, [r7, #12]
 8003cd0:	621a      	str	r2, [r3, #32]
 8003cd2:	68fb      	ldr	r3, [r7, #12]
 8003cd4:	699b      	ldr	r3, [r3, #24]
 8003cd6:	617b      	str	r3, [r7, #20]
 8003cd8:	68fb      	ldr	r3, [r7, #12]
 8003cda:	6a1b      	ldr	r3, [r3, #32]
 8003cdc:	613b      	str	r3, [r7, #16]
 8003cde:	697b      	ldr	r3, [r7, #20]
 8003ce0:	4a0d      	ldr	r2, [pc, #52]	; (8003d18 <TIM_TI2_ConfigInputStage+0x60>)
 8003ce2:	4013      	ands	r3, r2
 8003ce4:	617b      	str	r3, [r7, #20]
 8003ce6:	687b      	ldr	r3, [r7, #4]
 8003ce8:	031b      	lsls	r3, r3, #12
 8003cea:	697a      	ldr	r2, [r7, #20]
 8003cec:	4313      	orrs	r3, r2
 8003cee:	617b      	str	r3, [r7, #20]
 8003cf0:	693b      	ldr	r3, [r7, #16]
 8003cf2:	22a0      	movs	r2, #160	; 0xa0
 8003cf4:	4393      	bics	r3, r2
 8003cf6:	613b      	str	r3, [r7, #16]
 8003cf8:	68bb      	ldr	r3, [r7, #8]
 8003cfa:	011b      	lsls	r3, r3, #4
 8003cfc:	693a      	ldr	r2, [r7, #16]
 8003cfe:	4313      	orrs	r3, r2
 8003d00:	613b      	str	r3, [r7, #16]
 8003d02:	68fb      	ldr	r3, [r7, #12]
 8003d04:	697a      	ldr	r2, [r7, #20]
 8003d06:	619a      	str	r2, [r3, #24]
 8003d08:	68fb      	ldr	r3, [r7, #12]
 8003d0a:	693a      	ldr	r2, [r7, #16]
 8003d0c:	621a      	str	r2, [r3, #32]
 8003d0e:	46c0      	nop			; (mov r8, r8)
 8003d10:	46bd      	mov	sp, r7
 8003d12:	b006      	add	sp, #24
 8003d14:	bd80      	pop	{r7, pc}
 8003d16:	46c0      	nop			; (mov r8, r8)
 8003d18:	ffff0fff 	.word	0xffff0fff

08003d1c <TIM_ITRx_SetConfig>:
 8003d1c:	b580      	push	{r7, lr}
 8003d1e:	b084      	sub	sp, #16
 8003d20:	af00      	add	r7, sp, #0
 8003d22:	6078      	str	r0, [r7, #4]
 8003d24:	6039      	str	r1, [r7, #0]
 8003d26:	687b      	ldr	r3, [r7, #4]
 8003d28:	689b      	ldr	r3, [r3, #8]
 8003d2a:	60fb      	str	r3, [r7, #12]
 8003d2c:	68fb      	ldr	r3, [r7, #12]
 8003d2e:	2270      	movs	r2, #112	; 0x70
 8003d30:	4393      	bics	r3, r2
 8003d32:	60fb      	str	r3, [r7, #12]
 8003d34:	683a      	ldr	r2, [r7, #0]
 8003d36:	68fb      	ldr	r3, [r7, #12]
 8003d38:	4313      	orrs	r3, r2
 8003d3a:	2207      	movs	r2, #7
 8003d3c:	4313      	orrs	r3, r2
 8003d3e:	60fb      	str	r3, [r7, #12]
 8003d40:	687b      	ldr	r3, [r7, #4]
 8003d42:	68fa      	ldr	r2, [r7, #12]
 8003d44:	609a      	str	r2, [r3, #8]
 8003d46:	46c0      	nop			; (mov r8, r8)
 8003d48:	46bd      	mov	sp, r7
 8003d4a:	b004      	add	sp, #16
 8003d4c:	bd80      	pop	{r7, pc}
	...

08003d50 <TIM_ETR_SetConfig>:
 8003d50:	b580      	push	{r7, lr}
 8003d52:	b086      	sub	sp, #24
 8003d54:	af00      	add	r7, sp, #0
 8003d56:	60f8      	str	r0, [r7, #12]
 8003d58:	60b9      	str	r1, [r7, #8]
 8003d5a:	607a      	str	r2, [r7, #4]
 8003d5c:	603b      	str	r3, [r7, #0]
 8003d5e:	68fb      	ldr	r3, [r7, #12]
 8003d60:	689b      	ldr	r3, [r3, #8]
 8003d62:	617b      	str	r3, [r7, #20]
 8003d64:	697b      	ldr	r3, [r7, #20]
 8003d66:	4a09      	ldr	r2, [pc, #36]	; (8003d8c <TIM_ETR_SetConfig+0x3c>)
 8003d68:	4013      	ands	r3, r2
 8003d6a:	617b      	str	r3, [r7, #20]
 8003d6c:	683b      	ldr	r3, [r7, #0]
 8003d6e:	021a      	lsls	r2, r3, #8
 8003d70:	687b      	ldr	r3, [r7, #4]
 8003d72:	431a      	orrs	r2, r3
 8003d74:	68bb      	ldr	r3, [r7, #8]
 8003d76:	4313      	orrs	r3, r2
 8003d78:	697a      	ldr	r2, [r7, #20]
 8003d7a:	4313      	orrs	r3, r2
 8003d7c:	617b      	str	r3, [r7, #20]
 8003d7e:	68fb      	ldr	r3, [r7, #12]
 8003d80:	697a      	ldr	r2, [r7, #20]
 8003d82:	609a      	str	r2, [r3, #8]
 8003d84:	46c0      	nop			; (mov r8, r8)
 8003d86:	46bd      	mov	sp, r7
 8003d88:	b006      	add	sp, #24
 8003d8a:	bd80      	pop	{r7, pc}
 8003d8c:	ffff00ff 	.word	0xffff00ff

08003d90 <HAL_TIMEx_MasterConfigSynchronization>:
 8003d90:	b580      	push	{r7, lr}
 8003d92:	b084      	sub	sp, #16
 8003d94:	af00      	add	r7, sp, #0
 8003d96:	6078      	str	r0, [r7, #4]
 8003d98:	6039      	str	r1, [r7, #0]
 8003d9a:	687b      	ldr	r3, [r7, #4]
 8003d9c:	223c      	movs	r2, #60	; 0x3c
 8003d9e:	5c9b      	ldrb	r3, [r3, r2]
 8003da0:	2b01      	cmp	r3, #1
 8003da2:	d101      	bne.n	8003da8 <HAL_TIMEx_MasterConfigSynchronization+0x18>
 8003da4:	2302      	movs	r3, #2
 8003da6:	e047      	b.n	8003e38 <HAL_TIMEx_MasterConfigSynchronization+0xa8>
 8003da8:	687b      	ldr	r3, [r7, #4]
 8003daa:	223c      	movs	r2, #60	; 0x3c
 8003dac:	2101      	movs	r1, #1
 8003dae:	5499      	strb	r1, [r3, r2]
 8003db0:	687b      	ldr	r3, [r7, #4]
 8003db2:	223d      	movs	r2, #61	; 0x3d
 8003db4:	2102      	movs	r1, #2
 8003db6:	5499      	strb	r1, [r3, r2]
 8003db8:	687b      	ldr	r3, [r7, #4]
 8003dba:	681b      	ldr	r3, [r3, #0]
 8003dbc:	685b      	ldr	r3, [r3, #4]
 8003dbe:	60fb      	str	r3, [r7, #12]
 8003dc0:	687b      	ldr	r3, [r7, #4]
 8003dc2:	681b      	ldr	r3, [r3, #0]
 8003dc4:	689b      	ldr	r3, [r3, #8]
 8003dc6:	60bb      	str	r3, [r7, #8]
 8003dc8:	68fb      	ldr	r3, [r7, #12]
 8003dca:	2270      	movs	r2, #112	; 0x70
 8003dcc:	4393      	bics	r3, r2
 8003dce:	60fb      	str	r3, [r7, #12]
 8003dd0:	683b      	ldr	r3, [r7, #0]
 8003dd2:	681b      	ldr	r3, [r3, #0]
 8003dd4:	68fa      	ldr	r2, [r7, #12]
 8003dd6:	4313      	orrs	r3, r2
 8003dd8:	60fb      	str	r3, [r7, #12]
 8003dda:	687b      	ldr	r3, [r7, #4]
 8003ddc:	681b      	ldr	r3, [r3, #0]
 8003dde:	68fa      	ldr	r2, [r7, #12]
 8003de0:	605a      	str	r2, [r3, #4]
 8003de2:	687b      	ldr	r3, [r7, #4]
 8003de4:	681b      	ldr	r3, [r3, #0]
 8003de6:	4a16      	ldr	r2, [pc, #88]	; (8003e40 <HAL_TIMEx_MasterConfigSynchronization+0xb0>)
 8003de8:	4293      	cmp	r3, r2
 8003dea:	d00f      	beq.n	8003e0c <HAL_TIMEx_MasterConfigSynchronization+0x7c>
 8003dec:	687b      	ldr	r3, [r7, #4]
 8003dee:	681a      	ldr	r2, [r3, #0]
 8003df0:	2380      	movs	r3, #128	; 0x80
 8003df2:	05db      	lsls	r3, r3, #23
 8003df4:	429a      	cmp	r2, r3
 8003df6:	d009      	beq.n	8003e0c <HAL_TIMEx_MasterConfigSynchronization+0x7c>
 8003df8:	687b      	ldr	r3, [r7, #4]
 8003dfa:	681b      	ldr	r3, [r3, #0]
 8003dfc:	4a11      	ldr	r2, [pc, #68]	; (8003e44 <HAL_TIMEx_MasterConfigSynchronization+0xb4>)
 8003dfe:	4293      	cmp	r3, r2
 8003e00:	d004      	beq.n	8003e0c <HAL_TIMEx_MasterConfigSynchronization+0x7c>
 8003e02:	687b      	ldr	r3, [r7, #4]
 8003e04:	681b      	ldr	r3, [r3, #0]
 8003e06:	4a10      	ldr	r2, [pc, #64]	; (8003e48 <HAL_TIMEx_MasterConfigSynchronization+0xb8>)
 8003e08:	4293      	cmp	r3, r2
 8003e0a:	d10c      	bne.n	8003e26 <HAL_TIMEx_MasterConfigSynchronization+0x96>
 8003e0c:	68bb      	ldr	r3, [r7, #8]
 8003e0e:	2280      	movs	r2, #128	; 0x80
 8003e10:	4393      	bics	r3, r2
 8003e12:	60bb      	str	r3, [r7, #8]
 8003e14:	683b      	ldr	r3, [r7, #0]
 8003e16:	685b      	ldr	r3, [r3, #4]
 8003e18:	68ba      	ldr	r2, [r7, #8]
 8003e1a:	4313      	orrs	r3, r2
 8003e1c:	60bb      	str	r3, [r7, #8]
 8003e1e:	687b      	ldr	r3, [r7, #4]
 8003e20:	681b      	ldr	r3, [r3, #0]
 8003e22:	68ba      	ldr	r2, [r7, #8]
 8003e24:	609a      	str	r2, [r3, #8]
 8003e26:	687b      	ldr	r3, [r7, #4]
 8003e28:	223d      	movs	r2, #61	; 0x3d
 8003e2a:	2101      	movs	r1, #1
 8003e2c:	5499      	strb	r1, [r3, r2]
 8003e2e:	687b      	ldr	r3, [r7, #4]
 8003e30:	223c      	movs	r2, #60	; 0x3c
 8003e32:	2100      	movs	r1, #0
 8003e34:	5499      	strb	r1, [r3, r2]
 8003e36:	2300      	movs	r3, #0
 8003e38:	0018      	movs	r0, r3
 8003e3a:	46bd      	mov	sp, r7
 8003e3c:	b004      	add	sp, #16
 8003e3e:	bd80      	pop	{r7, pc}
 8003e40:	40012c00 	.word	0x40012c00
 8003e44:	40000400 	.word	0x40000400
 8003e48:	40014000 	.word	0x40014000

08003e4c <HAL_TIMEx_CommutCallback>:
 8003e4c:	b580      	push	{r7, lr}
 8003e4e:	b082      	sub	sp, #8
 8003e50:	af00      	add	r7, sp, #0
 8003e52:	6078      	str	r0, [r7, #4]
 8003e54:	46c0      	nop			; (mov r8, r8)
 8003e56:	46bd      	mov	sp, r7
 8003e58:	b002      	add	sp, #8
 8003e5a:	bd80      	pop	{r7, pc}

08003e5c <HAL_TIMEx_BreakCallback>:
 8003e5c:	b580      	push	{r7, lr}
 8003e5e:	b082      	sub	sp, #8
 8003e60:	af00      	add	r7, sp, #0
 8003e62:	6078      	str	r0, [r7, #4]
 8003e64:	46c0      	nop			; (mov r8, r8)
 8003e66:	46bd      	mov	sp, r7
 8003e68:	b002      	add	sp, #8
 8003e6a:	bd80      	pop	{r7, pc}

08003e6c <__libc_init_array>:
 8003e6c:	b570      	push	{r4, r5, r6, lr}
 8003e6e:	2600      	movs	r6, #0
 8003e70:	4d0c      	ldr	r5, [pc, #48]	; (8003ea4 <__libc_init_array+0x38>)
 8003e72:	4c0d      	ldr	r4, [pc, #52]	; (8003ea8 <__libc_init_array+0x3c>)
 8003e74:	1b64      	subs	r4, r4, r5
 8003e76:	10a4      	asrs	r4, r4, #2
 8003e78:	42a6      	cmp	r6, r4
 8003e7a:	d109      	bne.n	8003e90 <__libc_init_array+0x24>
 8003e7c:	2600      	movs	r6, #0
 8003e7e:	f000 f821 	bl	8003ec4 <_init>
 8003e82:	4d0a      	ldr	r5, [pc, #40]	; (8003eac <__libc_init_array+0x40>)
 8003e84:	4c0a      	ldr	r4, [pc, #40]	; (8003eb0 <__libc_init_array+0x44>)
 8003e86:	1b64      	subs	r4, r4, r5
 8003e88:	10a4      	asrs	r4, r4, #2
 8003e8a:	42a6      	cmp	r6, r4
 8003e8c:	d105      	bne.n	8003e9a <__libc_init_array+0x2e>
 8003e8e:	bd70      	pop	{r4, r5, r6, pc}
 8003e90:	00b3      	lsls	r3, r6, #2
 8003e92:	58eb      	ldr	r3, [r5, r3]
 8003e94:	4798      	blx	r3
 8003e96:	3601      	adds	r6, #1
 8003e98:	e7ee      	b.n	8003e78 <__libc_init_array+0xc>
 8003e9a:	00b3      	lsls	r3, r6, #2
 8003e9c:	58eb      	ldr	r3, [r5, r3]
 8003e9e:	4798      	blx	r3
 8003ea0:	3601      	adds	r6, #1
 8003ea2:	e7f2      	b.n	8003e8a <__libc_init_array+0x1e>
 8003ea4:	08003f4c 	.word	0x08003f4c
 8003ea8:	08003f4c 	.word	0x08003f4c
 8003eac:	08003f4c 	.word	0x08003f4c
 8003eb0:	08003f50 	.word	0x08003f50

08003eb4 <memset>:
 8003eb4:	0003      	movs	r3, r0
 8003eb6:	1882      	adds	r2, r0, r2
 8003eb8:	4293      	cmp	r3, r2
 8003eba:	d100      	bne.n	8003ebe <memset+0xa>
 8003ebc:	4770      	bx	lr
 8003ebe:	7019      	strb	r1, [r3, #0]
 8003ec0:	3301      	adds	r3, #1
 8003ec2:	e7f9      	b.n	8003eb8 <memset+0x4>

08003ec4 <_init>:
 8003ec4:	b5f8      	push	{r3, r4, r5, r6, r7, lr}
 8003ec6:	46c0      	nop			; (mov r8, r8)
 8003ec8:	bcf8      	pop	{r3, r4, r5, r6, r7}
 8003eca:	bc08      	pop	{r3}
 8003ecc:	469e      	mov	lr, r3
 8003ece:	4770      	bx	lr

08003ed0 <_fini>:
 8003ed0:	b5f8      	push	{r3, r4, r5, r6, r7, lr}
 8003ed2:	46c0      	nop			; (mov r8, r8)
 8003ed4:	bcf8      	pop	{r3, r4, r5, r6, r7}
 8003ed6:	bc08      	pop	{r3}
 8003ed8:	469e      	mov	lr, r3
 8003eda:	4770      	bx	lr
